<?xml version="1.0" encoding="utf-8"?>
<?xml-stylesheet type="text/xsl" href="pdml2html.xsl"?>
<!-- You can find pdml2html.xsl in C:\Program Files\Wireshark or at https://code.wireshark.org/review/gitweb?p=wireshark.git;a=blob_plain;f=pdml2html.xsl. -->
<pdml version="0" creator="wireshark/2.6.5" time="Fri Dec 14 00:18:09 2018" capture_file="C:\\Users\\alien\\Desktop\\SE2-Team-3-Net-Tool\\lightweightTest.pcap">
<packet>
  <proto name="geninfo" pos="0" showname="General information" size="115">
    <field name="num" pos="0" show="1" showname="Number" value="1" size="115"/>
    <field name="len" pos="0" show="115" showname="Frame Length" value="73" size="115"/>
    <field name="caplen" pos="0" show="115" showname="Captured Length" value="73" size="115"/>
    <field name="timestamp" pos="0" show="Dec 11, 2018 21:06:41.459200000 Mountain Standard Time" showname="Captured Time" value="1544587601.459200000" size="115"/>
  </proto>
  <proto name="frame" showname="Frame 1: 115 bytes on wire (920 bits), 115 bytes captured (920 bits)" size="115" pos="0">
    <field name="frame.encap_type" showname="Encapsulation type: Ethernet (1)" size="0" pos="0" show="1"/>
    <field name="frame.time" showname="Arrival Time: Dec 11, 2018 21:06:41.459200000 Mountain Standard Time" size="0" pos="0" show="Dec 11, 2018 21:06:41.459200000 Mountain Standard Time"/>
    <field name="frame.offset_shift" showname="Time shift for this packet: 0.000000000 seconds" size="0" pos="0" show="0.000000000"/>
    <field name="frame.time_epoch" showname="Epoch Time: 1544587601.459200000 seconds" size="0" pos="0" show="1544587601.459200000"/>
    <field name="frame.time_delta" showname="Time delta from previous captured frame: 0.000000000 seconds" size="0" pos="0" show="0.000000000"/>
    <field name="frame.time_delta_displayed" showname="Time delta from previous displayed frame: 0.000000000 seconds" size="0" pos="0" show="0.000000000"/>
    <field name="frame.time_relative" showname="Time since reference or first frame: 0.000000000 seconds" size="0" pos="0" show="0.000000000"/>
    <field name="frame.number" showname="Frame Number: 1" size="0" pos="0" show="1"/>
    <field name="frame.len" showname="Frame Length: 115 bytes (920 bits)" size="0" pos="0" show="115"/>
    <field name="frame.cap_len" showname="Capture Length: 115 bytes (920 bits)" size="0" pos="0" show="115"/>
    <field name="frame.marked" showname="Frame is marked: False" size="0" pos="0" show="0"/>
    <field name="frame.ignored" showname="Frame is ignored: False" size="0" pos="0" show="0"/>
    <field name="frame.protocols" showname="Protocols in frame: eth:ethertype:ip:tcp:ssl" size="0" pos="0" show="eth:ethertype:ip:tcp:ssl"/>
  </proto>
  <proto name="eth" showname="Ethernet II, Src: LiteonTe_4e:2e:21 (18:cf:5e:4e:2e:21), Dst: HuaweiTe_30:02:68 (7c:b1:5d:30:02:68)" size="14" pos="0">
    <field name="eth.dst" showname="Destination: HuaweiTe_30:02:68 (7c:b1:5d:30:02:68)" size="6" pos="0" show="7c:b1:5d:30:02:68" value="7cb15d300268">
      <field name="eth.dst_resolved" showname="Destination (resolved): HuaweiTe_30:02:68" hide="yes" size="6" pos="0" show="HuaweiTe_30:02:68" value="7cb15d300268"/>
      <field name="eth.addr" showname="Address: HuaweiTe_30:02:68 (7c:b1:5d:30:02:68)" size="6" pos="0" show="7c:b1:5d:30:02:68" value="7cb15d300268"/>
      <field name="eth.addr_resolved" showname="Address (resolved): HuaweiTe_30:02:68" hide="yes" size="6" pos="0" show="HuaweiTe_30:02:68" value="7cb15d300268"/>
      <field name="eth.lg" showname=".... ..0. .... .... .... .... = LG bit: Globally unique address (factory default)" size="3" pos="0" show="0" value="0" unmaskedvalue="7cb15d"/>
      <field name="eth.ig" showname=".... ...0 .... .... .... .... = IG bit: Individual address (unicast)" size="3" pos="0" show="0" value="0" unmaskedvalue="7cb15d"/>
    </field>
    <field name="eth.src" showname="Source: LiteonTe_4e:2e:21 (18:cf:5e:4e:2e:21)" size="6" pos="6" show="18:cf:5e:4e:2e:21" value="18cf5e4e2e21">
      <field name="eth.src_resolved" showname="Source (resolved): LiteonTe_4e:2e:21" hide="yes" size="6" pos="6" show="LiteonTe_4e:2e:21" value="18cf5e4e2e21"/>
      <field name="eth.addr" showname="Address: LiteonTe_4e:2e:21 (18:cf:5e:4e:2e:21)" size="6" pos="6" show="18:cf:5e:4e:2e:21" value="18cf5e4e2e21"/>
      <field name="eth.addr_resolved" showname="Address (resolved): LiteonTe_4e:2e:21" hide="yes" size="6" pos="6" show="LiteonTe_4e:2e:21" value="18cf5e4e2e21"/>
      <field name="eth.lg" showname=".... ..0. .... .... .... .... = LG bit: Globally unique address (factory default)" size="3" pos="6" show="0" value="0" unmaskedvalue="18cf5e"/>
      <field name="eth.ig" showname=".... ...0 .... .... .... .... = IG bit: Individual address (unicast)" size="3" pos="6" show="0" value="0" unmaskedvalue="18cf5e"/>
    </field>
    <field name="eth.type" showname="Type: IPv4 (0x0800)" size="2" pos="12" show="0x00000800" value="0800"/>
  </proto>
  <proto name="ip" showname="Internet Protocol Version 4, Src: 192.168.1.66, Dst: 104.16.60.37" size="20" pos="14">
    <field name="ip.version" showname="0100 .... = Version: 4" size="1" pos="14" show="4" value="4" unmaskedvalue="45"/>
    <field name="ip.hdr_len" showname=".... 0101 = Header Length: 20 bytes (5)" size="1" pos="14" show="20" value="45"/>
    <field name="ip.dsfield" showname="Differentiated Services Field: 0x00 (DSCP: CS0, ECN: Not-ECT)" size="1" pos="15" show="0x00000000" value="00">
      <field name="ip.dsfield.dscp" showname="0000 00.. = Differentiated Services Codepoint: Default (0)" size="1" pos="15" show="0" value="0" unmaskedvalue="00"/>
      <field name="ip.dsfield.ecn" showname=".... ..00 = Explicit Congestion Notification: Not ECN-Capable Transport (0)" size="1" pos="15" show="0" value="0" unmaskedvalue="00"/>
    </field>
    <field name="ip.len" showname="Total Length: 101" size="2" pos="16" show="101" value="0065"/>
    <field name="ip.id" showname="Identification: 0x0b75 (2933)" size="2" pos="18" show="0x00000b75" value="0b75"/>
    <field name="ip.flags" showname="Flags: 0x4000, Don&#x27;t fragment" size="2" pos="20" show="0x00004000" value="4000">
      <field name="ip.flags.rb" showname="0... .... .... .... = Reserved bit: Not set" size="2" pos="20" show="0" value="0" unmaskedvalue="4000"/>
      <field name="ip.flags.df" showname=".1.. .... .... .... = Don&#x27;t fragment: Set" size="2" pos="20" show="1" value="1" unmaskedvalue="4000"/>
      <field name="ip.flags.mf" showname="..0. .... .... .... = More fragments: Not set" size="2" pos="20" show="0" value="0" unmaskedvalue="4000"/>
      <field name="ip.frag_offset" showname="...0 0000 0000 0000 = Fragment offset: 0" size="2" pos="20" show="0" value="0" unmaskedvalue="4000"/>
    </field>
    <field name="ip.ttl" showname="Time to live: 128" size="1" pos="22" show="128" value="80"/>
    <field name="ip.proto" showname="Protocol: TCP (6)" size="1" pos="23" show="6" value="06"/>
    <field name="ip.checksum" showname="Header checksum: 0x88fe [validation disabled]" size="2" pos="24" show="0x000088fe" value="88fe"/>
    <field name="ip.checksum.status" showname="Header checksum status: Unverified" size="0" pos="24" show="2"/>
    <field name="ip.src" showname="Source: 192.168.1.66" size="4" pos="26" show="192.168.1.66" value="c0a80142"/>
    <field name="ip.addr" showname="Source or Destination Address: 192.168.1.66" hide="yes" size="4" pos="26" show="192.168.1.66" value="c0a80142"/>
    <field name="ip.src_host" showname="Source Host: 192.168.1.66" hide="yes" size="4" pos="26" show="192.168.1.66" value="c0a80142"/>
    <field name="ip.host" showname="Source or Destination Host: 192.168.1.66" hide="yes" size="4" pos="26" show="192.168.1.66" value="c0a80142"/>
    <field name="ip.dst" showname="Destination: 104.16.60.37" size="4" pos="30" show="104.16.60.37" value="68103c25"/>
    <field name="ip.addr" showname="Source or Destination Address: 104.16.60.37" hide="yes" size="4" pos="30" show="104.16.60.37" value="68103c25"/>
    <field name="ip.dst_host" showname="Destination Host: 104.16.60.37" hide="yes" size="4" pos="30" show="104.16.60.37" value="68103c25"/>
    <field name="ip.host" showname="Source or Destination Host: 104.16.60.37" hide="yes" size="4" pos="30" show="104.16.60.37" value="68103c25"/>
  </proto>
  <proto name="tcp" showname="Transmission Control Protocol, Src Port: 51381, Dst Port: 443, Seq: 1, Ack: 1, Len: 61" size="20" pos="34">
    <field name="tcp.srcport" showname="Source Port: 51381" size="2" pos="34" show="51381" value="c8b5"/>
    <field name="tcp.dstport" showname="Destination Port: 443" size="2" pos="36" show="443" value="01bb"/>
    <field name="tcp.port" showname="Source or Destination Port: 51381" hide="yes" size="2" pos="34" show="51381" value="c8b5"/>
    <field name="tcp.port" showname="Source or Destination Port: 443" hide="yes" size="2" pos="36" show="443" value="01bb"/>
    <field name="tcp.stream" showname="Stream index: 0" size="0" pos="34" show="0"/>
    <field name="tcp.len" showname="TCP Segment Len: 61" size="1" pos="46" show="61" value="50"/>
    <field name="tcp.seq" showname="Sequence number: 1    (relative sequence number)" size="4" pos="38" show="1" value="2a574dc3"/>
    <field name="tcp.nxtseq" showname="Next sequence number: 62    (relative sequence number)" size="0" pos="34" show="62"/>
    <field name="tcp.ack" showname="Acknowledgment number: 1    (relative ack number)" size="4" pos="42" show="1" value="de912684"/>
    <field name="tcp.hdr_len" showname="0101 .... = Header Length: 20 bytes (5)" size="1" pos="46" show="20" value="50"/>
    <field name="tcp.flags" showname="Flags: 0x018 (PSH, ACK)" size="2" pos="46" show="0x00000018" value="18" unmaskedvalue="5018">
      <field name="tcp.flags.res" showname="000. .... .... = Reserved: Not set" size="1" pos="46" show="0" value="0" unmaskedvalue="50"/>
      <field name="tcp.flags.ns" showname="...0 .... .... = Nonce: Not set" size="1" pos="46" show="0" value="0" unmaskedvalue="50"/>
      <field name="tcp.flags.cwr" showname=".... 0... .... = Congestion Window Reduced (CWR): Not set" size="1" pos="47" show="0" value="0" unmaskedvalue="18"/>
      <field name="tcp.flags.ecn" showname=".... .0.. .... = ECN-Echo: Not set" size="1" pos="47" show="0" value="0" unmaskedvalue="18"/>
      <field name="tcp.flags.urg" showname=".... ..0. .... = Urgent: Not set" size="1" pos="47" show="0" value="0" unmaskedvalue="18"/>
      <field name="tcp.flags.ack" showname=".... ...1 .... = Acknowledgment: Set" size="1" pos="47" show="1" value="1" unmaskedvalue="18"/>
      <field name="tcp.flags.push" showname=".... .... 1... = Push: Set" size="1" pos="47" show="1" value="1" unmaskedvalue="18"/>
      <field name="tcp.flags.reset" showname=".... .... .0.. = Reset: Not set" size="1" pos="47" show="0" value="0" unmaskedvalue="18"/>
      <field name="tcp.flags.syn" showname=".... .... ..0. = Syn: Not set" size="1" pos="47" show="0" value="0" unmaskedvalue="18"/>
      <field name="tcp.flags.fin" showname=".... .... ...0 = Fin: Not set" size="1" pos="47" show="0" value="0" unmaskedvalue="18"/>
      <field name="tcp.flags.str" showname="TCP Flags: \xc2\xb7\xc2\xb7\xc2\xb7\xc2\xb7\xc2\xb7\xc2\xb7\xc2\xb7AP\xc2\xb7\xc2\xb7\xc2\xb7" size="2" pos="46" show="\xc2\xb7\xc2\xb7\xc2\xb7\xc2\xb7\xc2\xb7\xc2\xb7\xc2\xb7AP\xc2\xb7\xc2\xb7\xc2\xb7" value="5018"/>
    </field>
    <field name="tcp.window_size_value" showname="Window size value: 64183" size="2" pos="48" show="64183" value="fab7"/>
    <field name="tcp.window_size" showname="Calculated window size: 64183" size="2" pos="48" show="64183" value="fab7"/>
    <field name="tcp.window_size_scalefactor" showname="Window size scaling factor: -1 (unknown)" size="2" pos="48" show="-1" value="fab7"/>
    <field name="tcp.checksum" showname="Checksum: 0xe25d [unverified]" size="2" pos="50" show="0x0000e25d" value="e25d"/>
    <field name="tcp.checksum.status" showname="Checksum Status: Unverified" size="0" pos="50" show="2"/>
    <field name="tcp.urgent_pointer" showname="Urgent pointer: 0" size="2" pos="52" show="0" value="0000"/>
    <field name="tcp.analysis" showname="SEQ/ACK analysis" size="0" pos="34" show="" value="">
      <field name="tcp.analysis.bytes_in_flight" showname="Bytes in flight: 61" size="0" pos="34" show="61"/>
      <field name="tcp.analysis.push_bytes_sent" showname="Bytes sent since last PSH flag: 61" size="0" pos="34" show="61"/>
    </field>
    <field name="" show="Timestamps" size="0" pos="34">
      <field name="tcp.time_relative" showname="Time since first frame in this TCP stream: 0.000000000 seconds" size="0" pos="34" show="0.000000000"/>
      <field name="tcp.time_delta" showname="Time since previous frame in this TCP stream: 0.000000000 seconds" size="0" pos="34" show="0.000000000"/>
    </field>
    <field name="tcp.payload" showname="TCP payload (61 bytes)" size="61" pos="54" show="17:03:03:00:38:00:00:00:00:00:00:00:75:dd:fc:0c:0a:11:1b:36:d9:29:4a:92:6f:7f:cd:48:ff:72:8a:ef:5b:24:21:e5:b8:ef:49:dc:d0:4f:e2:b2:c5:1e:f5:0f:e9:14:72:9d:32:13:c1:ad:29:bd:c4:65:26" value="17030300380000000000000075ddfc0c0a111b36d9294a926f7fcd48ff728aef5b2421e5b8ef49dcd04fe2b2c51ef50fe914729d3213c1ad29bdc46526"/>
  </proto>
  <proto name="ssl" showname="Secure Sockets Layer" size="61" pos="54">
    <field name="ssl.record" showname="TLSv1.2 Record Layer: Application Data Protocol: http-over-tls" size="61" pos="54" show="" value="">
      <field name="ssl.record.content_type" showname="Content Type: Application Data (23)" size="1" pos="54" show="23" value="17"/>
      <field name="ssl.record.version" showname="Version: TLS 1.2 (0x0303)" size="2" pos="55" show="0x00000303" value="0303"/>
      <field name="ssl.record.length" showname="Length: 56" size="2" pos="57" show="56" value="0038"/>
      <field name="ssl.app_data" showname="Encrypted Application Data: 0000000000000075ddfc0c0a111b36d9294a926f7fcd48ff..." size="56" pos="59" show="00:00:00:00:00:00:00:75:dd:fc:0c:0a:11:1b:36:d9:29:4a:92:6f:7f:cd:48:ff:72:8a:ef:5b:24:21:e5:b8:ef:49:dc:d0:4f:e2:b2:c5:1e:f5:0f:e9:14:72:9d:32:13:c1:ad:29:bd:c4:65:26" value="0000000000000075ddfc0c0a111b36d9294a926f7fcd48ff728aef5b2421e5b8ef49dcd04fe2b2c51ef50fe914729d3213c1ad29bdc46526"/>
    </field>
  </proto>
</packet>


<packet>
  <proto name="geninfo" pos="0" showname="General information" size="60">
    <field name="num" pos="0" show="2" showname="Number" value="2" size="60"/>
    <field name="len" pos="0" show="60" showname="Frame Length" value="3c" size="60"/>
    <field name="caplen" pos="0" show="60" showname="Captured Length" value="3c" size="60"/>
    <field name="timestamp" pos="0" show="Dec 11, 2018 21:06:41.528145000 Mountain Standard Time" showname="Captured Time" value="1544587601.528145000" size="60"/>
  </proto>
  <proto name="frame" showname="Frame 2: 60 bytes on wire (480 bits), 60 bytes captured (480 bits)" size="60" pos="0">
    <field name="frame.encap_type" showname="Encapsulation type: Ethernet (1)" size="0" pos="0" show="1"/>
    <field name="frame.time" showname="Arrival Time: Dec 11, 2018 21:06:41.528145000 Mountain Standard Time" size="0" pos="0" show="Dec 11, 2018 21:06:41.528145000 Mountain Standard Time"/>
    <field name="frame.offset_shift" showname="Time shift for this packet: 0.000000000 seconds" size="0" pos="0" show="0.000000000"/>
    <field name="frame.time_epoch" showname="Epoch Time: 1544587601.528145000 seconds" size="0" pos="0" show="1544587601.528145000"/>
    <field name="frame.time_delta" showname="Time delta from previous captured frame: 0.068945000 seconds" size="0" pos="0" show="0.068945000"/>
    <field name="frame.time_delta_displayed" showname="Time delta from previous displayed frame: 0.068945000 seconds" size="0" pos="0" show="0.068945000"/>
    <field name="frame.time_relative" showname="Time since reference or first frame: 0.068945000 seconds" size="0" pos="0" show="0.068945000"/>
    <field name="frame.number" showname="Frame Number: 2" size="0" pos="0" show="2"/>
    <field name="frame.len" showname="Frame Length: 60 bytes (480 bits)" size="0" pos="0" show="60"/>
    <field name="frame.cap_len" showname="Capture Length: 60 bytes (480 bits)" size="0" pos="0" show="60"/>
    <field name="frame.marked" showname="Frame is marked: False" size="0" pos="0" show="0"/>
    <field name="frame.ignored" showname="Frame is ignored: False" size="0" pos="0" show="0"/>
    <field name="frame.protocols" showname="Protocols in frame: eth:ethertype:ip:tcp" size="0" pos="0" show="eth:ethertype:ip:tcp"/>
  </proto>
  <proto name="eth" showname="Ethernet II, Src: HuaweiTe_30:02:68 (7c:b1:5d:30:02:68), Dst: LiteonTe_4e:2e:21 (18:cf:5e:4e:2e:21)" size="14" pos="0">
    <field name="eth.dst" showname="Destination: LiteonTe_4e:2e:21 (18:cf:5e:4e:2e:21)" size="6" pos="0" show="18:cf:5e:4e:2e:21" value="18cf5e4e2e21">
      <field name="eth.dst_resolved" showname="Destination (resolved): LiteonTe_4e:2e:21" hide="yes" size="6" pos="0" show="LiteonTe_4e:2e:21" value="18cf5e4e2e21"/>
      <field name="eth.addr" showname="Address: LiteonTe_4e:2e:21 (18:cf:5e:4e:2e:21)" size="6" pos="0" show="18:cf:5e:4e:2e:21" value="18cf5e4e2e21"/>
      <field name="eth.addr_resolved" showname="Address (resolved): LiteonTe_4e:2e:21" hide="yes" size="6" pos="0" show="LiteonTe_4e:2e:21" value="18cf5e4e2e21"/>
      <field name="eth.lg" showname=".... ..0. .... .... .... .... = LG bit: Globally unique address (factory default)" size="3" pos="0" show="0" value="0" unmaskedvalue="18cf5e"/>
      <field name="eth.ig" showname=".... ...0 .... .... .... .... = IG bit: Individual address (unicast)" size="3" pos="0" show="0" value="0" unmaskedvalue="18cf5e"/>
    </field>
    <field name="eth.src" showname="Source: HuaweiTe_30:02:68 (7c:b1:5d:30:02:68)" size="6" pos="6" show="7c:b1:5d:30:02:68" value="7cb15d300268">
      <field name="eth.src_resolved" showname="Source (resolved): HuaweiTe_30:02:68" hide="yes" size="6" pos="6" show="HuaweiTe_30:02:68" value="7cb15d300268"/>
      <field name="eth.addr" showname="Address: HuaweiTe_30:02:68 (7c:b1:5d:30:02:68)" size="6" pos="6" show="7c:b1:5d:30:02:68" value="7cb15d300268"/>
      <field name="eth.addr_resolved" showname="Address (resolved): HuaweiTe_30:02:68" hide="yes" size="6" pos="6" show="HuaweiTe_30:02:68" value="7cb15d300268"/>
      <field name="eth.lg" showname=".... ..0. .... .... .... .... = LG bit: Globally unique address (factory default)" size="3" pos="6" show="0" value="0" unmaskedvalue="7cb15d"/>
      <field name="eth.ig" showname=".... ...0 .... .... .... .... = IG bit: Individual address (unicast)" size="3" pos="6" show="0" value="0" unmaskedvalue="7cb15d"/>
    </field>
    <field name="eth.type" showname="Type: IPv4 (0x0800)" size="2" pos="12" show="0x00000800" value="0800"/>
    <field name="eth.padding" showname="Padding: 000000000000" size="6" pos="54" show="00:00:00:00:00:00" value="000000000000"/>
  </proto>
  <proto name="ip" showname="Internet Protocol Version 4, Src: 104.16.60.37, Dst: 192.168.1.66" size="20" pos="14">
    <field name="ip.version" showname="0100 .... = Version: 4" size="1" pos="14" show="4" value="4" unmaskedvalue="45"/>
    <field name="ip.hdr_len" showname=".... 0101 = Header Length: 20 bytes (5)" size="1" pos="14" show="20" value="45"/>
    <field name="ip.dsfield" showname="Differentiated Services Field: 0x00 (DSCP: CS0, ECN: Not-ECT)" size="1" pos="15" show="0x00000000" value="00">
      <field name="ip.dsfield.dscp" showname="0000 00.. = Differentiated Services Codepoint: Default (0)" size="1" pos="15" show="0" value="0" unmaskedvalue="00"/>
      <field name="ip.dsfield.ecn" showname=".... ..00 = Explicit Congestion Notification: Not ECN-Capable Transport (0)" size="1" pos="15" show="0" value="0" unmaskedvalue="00"/>
    </field>
    <field name="ip.len" showname="Total Length: 40" size="2" pos="16" show="40" value="0028"/>
    <field name="ip.id" showname="Identification: 0xf4b2 (62642)" size="2" pos="18" show="0x0000f4b2" value="f4b2"/>
    <field name="ip.flags" showname="Flags: 0x4000, Don&#x27;t fragment" size="2" pos="20" show="0x00004000" value="4000">
      <field name="ip.flags.rb" showname="0... .... .... .... = Reserved bit: Not set" size="2" pos="20" show="0" value="0" unmaskedvalue="4000"/>
      <field name="ip.flags.df" showname=".1.. .... .... .... = Don&#x27;t fragment: Set" size="2" pos="20" show="1" value="1" unmaskedvalue="4000"/>
      <field name="ip.flags.mf" showname="..0. .... .... .... = More fragments: Not set" size="2" pos="20" show="0" value="0" unmaskedvalue="4000"/>
      <field name="ip.frag_offset" showname="...0 0000 0000 0000 = Fragment offset: 0" size="2" pos="20" show="0" value="0" unmaskedvalue="4000"/>
    </field>
    <field name="ip.ttl" showname="Time to live: 56" size="1" pos="22" show="56" value="38"/>
    <field name="ip.proto" showname="Protocol: TCP (6)" size="1" pos="23" show="6" value="06"/>
    <field name="ip.checksum" showname="Header checksum: 0xe7fd [validation disabled]" size="2" pos="24" show="0x0000e7fd" value="e7fd"/>
    <field name="ip.checksum.status" showname="Header checksum status: Unverified" size="0" pos="24" show="2"/>
    <field name="ip.src" showname="Source: 104.16.60.37" size="4" pos="26" show="104.16.60.37" value="68103c25"/>
    <field name="ip.addr" showname="Source or Destination Address: 104.16.60.37" hide="yes" size="4" pos="26" show="104.16.60.37" value="68103c25"/>
    <field name="ip.src_host" showname="Source Host: 104.16.60.37" hide="yes" size="4" pos="26" show="104.16.60.37" value="68103c25"/>
    <field name="ip.host" showname="Source or Destination Host: 104.16.60.37" hide="yes" size="4" pos="26" show="104.16.60.37" value="68103c25"/>
    <field name="ip.dst" showname="Destination: 192.168.1.66" size="4" pos="30" show="192.168.1.66" value="c0a80142"/>
    <field name="ip.addr" showname="Source or Destination Address: 192.168.1.66" hide="yes" size="4" pos="30" show="192.168.1.66" value="c0a80142"/>
    <field name="ip.dst_host" showname="Destination Host: 192.168.1.66" hide="yes" size="4" pos="30" show="192.168.1.66" value="c0a80142"/>
    <field name="ip.host" showname="Source or Destination Host: 192.168.1.66" hide="yes" size="4" pos="30" show="192.168.1.66" value="c0a80142"/>
  </proto>
  <proto name="tcp" showname="Transmission Control Protocol, Src Port: 443, Dst Port: 51381, Seq: 1, Ack: 62, Len: 0" size="20" pos="34">
    <field name="tcp.srcport" showname="Source Port: 443" size="2" pos="34" show="443" value="01bb"/>
    <field name="tcp.dstport" showname="Destination Port: 51381" size="2" pos="36" show="51381" value="c8b5"/>
    <field name="tcp.port" showname="Source or Destination Port: 443" hide="yes" size="2" pos="34" show="443" value="01bb"/>
    <field name="tcp.port" showname="Source or Destination Port: 51381" hide="yes" size="2" pos="36" show="51381" value="c8b5"/>
    <field name="tcp.stream" showname="Stream index: 0" size="0" pos="34" show="0"/>
    <field name="tcp.len" showname="TCP Segment Len: 0" size="1" pos="46" show="0" value="50"/>
    <field name="tcp.seq" showname="Sequence number: 1    (relative sequence number)" size="4" pos="38" show="1" value="de912684"/>
    <field name="tcp.nxtseq" showname="Next sequence number: 1    (relative sequence number)" size="0" pos="34" show="1"/>
    <field name="tcp.ack" showname="Acknowledgment number: 62    (relative ack number)" size="4" pos="42" show="62" value="2a574e00"/>
    <field name="tcp.hdr_len" showname="0101 .... = Header Length: 20 bytes (5)" size="1" pos="46" show="20" value="50"/>
    <field name="tcp.flags" showname="Flags: 0x010 (ACK)" size="2" pos="46" show="0x00000010" value="10" unmaskedvalue="5010">
      <field name="tcp.flags.res" showname="000. .... .... = Reserved: Not set" size="1" pos="46" show="0" value="0" unmaskedvalue="50"/>
      <field name="tcp.flags.ns" showname="...0 .... .... = Nonce: Not set" size="1" pos="46" show="0" value="0" unmaskedvalue="50"/>
      <field name="tcp.flags.cwr" showname=".... 0... .... = Congestion Window Reduced (CWR): Not set" size="1" pos="47" show="0" value="0" unmaskedvalue="10"/>
      <field name="tcp.flags.ecn" showname=".... .0.. .... = ECN-Echo: Not set" size="1" pos="47" show="0" value="0" unmaskedvalue="10"/>
      <field name="tcp.flags.urg" showname=".... ..0. .... = Urgent: Not set" size="1" pos="47" show="0" value="0" unmaskedvalue="10"/>
      <field name="tcp.flags.ack" showname=".... ...1 .... = Acknowledgment: Set" size="1" pos="47" show="1" value="1" unmaskedvalue="10"/>
      <field name="tcp.flags.push" showname=".... .... 0... = Push: Not set" size="1" pos="47" show="0" value="0" unmaskedvalue="10"/>
      <field name="tcp.flags.reset" showname=".... .... .0.. = Reset: Not set" size="1" pos="47" show="0" value="0" unmaskedvalue="10"/>
      <field name="tcp.flags.syn" showname=".... .... ..0. = Syn: Not set" size="1" pos="47" show="0" value="0" unmaskedvalue="10"/>
      <field name="tcp.flags.fin" showname=".... .... ...0 = Fin: Not set" size="1" pos="47" show="0" value="0" unmaskedvalue="10"/>
      <field name="tcp.flags.str" showname="TCP Flags: \xc2\xb7\xc2\xb7\xc2\xb7\xc2\xb7\xc2\xb7\xc2\xb7\xc2\xb7A\xc2\xb7\xc2\xb7\xc2\xb7\xc2\xb7" size="2" pos="46" show="\xc2\xb7\xc2\xb7\xc2\xb7\xc2\xb7\xc2\xb7\xc2\xb7\xc2\xb7A\xc2\xb7\xc2\xb7\xc2\xb7\xc2\xb7" value="5010"/>
    </field>
    <field name="tcp.window_size_value" showname="Window size value: 35255" size="2" pos="48" show="35255" value="89b7"/>
    <field name="tcp.window_size" showname="Calculated window size: 35255" size="2" pos="48" show="35255" value="89b7"/>
    <field name="tcp.window_size_scalefactor" showname="Window size scaling factor: -1 (unknown)" size="2" pos="48" show="-1" value="89b7"/>
    <field name="tcp.checksum" showname="Checksum: 0x781f [unverified]" size="2" pos="50" show="0x0000781f" value="781f"/>
    <field name="tcp.checksum.status" showname="Checksum Status: Unverified" size="0" pos="50" show="2"/>
    <field name="tcp.urgent_pointer" showname="Urgent pointer: 0" size="2" pos="52" show="0" value="0000"/>
    <field name="tcp.analysis" showname="SEQ/ACK analysis" size="0" pos="34" show="" value="">
      <field name="tcp.analysis.acks_frame" showname="This is an ACK to the segment in frame: 1" size="0" pos="34" show="1"/>
      <field name="tcp.analysis.ack_rtt" showname="The RTT to ACK the segment was: 0.068945000 seconds" size="0" pos="34" show="0.068945000"/>
    </field>
    <field name="" show="Timestamps" size="0" pos="34">
      <field name="tcp.time_relative" showname="Time since first frame in this TCP stream: 0.068945000 seconds" size="0" pos="34" show="0.068945000"/>
      <field name="tcp.time_delta" showname="Time since previous frame in this TCP stream: 0.068945000 seconds" size="0" pos="34" show="0.068945000"/>
    </field>
  </proto>
</packet>


<packet>
  <proto name="geninfo" pos="0" showname="General information" size="94">
    <field name="num" pos="0" show="3" showname="Number" value="3" size="94"/>
    <field name="len" pos="0" show="94" showname="Frame Length" value="5e" size="94"/>
    <field name="caplen" pos="0" show="94" showname="Captured Length" value="5e" size="94"/>
    <field name="timestamp" pos="0" show="Dec 11, 2018 21:06:41.593322000 Mountain Standard Time" showname="Captured Time" value="1544587601.593322000" size="94"/>
  </proto>
  <proto name="frame" showname="Frame 3: 94 bytes on wire (752 bits), 94 bytes captured (752 bits)" size="94" pos="0">
    <field name="frame.encap_type" showname="Encapsulation type: Ethernet (1)" size="0" pos="0" show="1"/>
    <field name="frame.time" showname="Arrival Time: Dec 11, 2018 21:06:41.593322000 Mountain Standard Time" size="0" pos="0" show="Dec 11, 2018 21:06:41.593322000 Mountain Standard Time"/>
    <field name="frame.offset_shift" showname="Time shift for this packet: 0.000000000 seconds" size="0" pos="0" show="0.000000000"/>
    <field name="frame.time_epoch" showname="Epoch Time: 1544587601.593322000 seconds" size="0" pos="0" show="1544587601.593322000"/>
    <field name="frame.time_delta" showname="Time delta from previous captured frame: 0.065177000 seconds" size="0" pos="0" show="0.065177000"/>
    <field name="frame.time_delta_displayed" showname="Time delta from previous displayed frame: 0.065177000 seconds" size="0" pos="0" show="0.065177000"/>
    <field name="frame.time_relative" showname="Time since reference or first frame: 0.134122000 seconds" size="0" pos="0" show="0.134122000"/>
    <field name="frame.number" showname="Frame Number: 3" size="0" pos="0" show="3"/>
    <field name="frame.len" showname="Frame Length: 94 bytes (752 bits)" size="0" pos="0" show="94"/>
    <field name="frame.cap_len" showname="Capture Length: 94 bytes (752 bits)" size="0" pos="0" show="94"/>
    <field name="frame.marked" showname="Frame is marked: False" size="0" pos="0" show="0"/>
    <field name="frame.ignored" showname="Frame is ignored: False" size="0" pos="0" show="0"/>
    <field name="frame.protocols" showname="Protocols in frame: eth:ethertype:ip:tcp:ssl" size="0" pos="0" show="eth:ethertype:ip:tcp:ssl"/>
  </proto>
  <proto name="eth" showname="Ethernet II, Src: HuaweiTe_30:02:68 (7c:b1:5d:30:02:68), Dst: LiteonTe_4e:2e:21 (18:cf:5e:4e:2e:21)" size="14" pos="0">
    <field name="eth.dst" showname="Destination: LiteonTe_4e:2e:21 (18:cf:5e:4e:2e:21)" size="6" pos="0" show="18:cf:5e:4e:2e:21" value="18cf5e4e2e21">
      <field name="eth.dst_resolved" showname="Destination (resolved): LiteonTe_4e:2e:21" hide="yes" size="6" pos="0" show="LiteonTe_4e:2e:21" value="18cf5e4e2e21"/>
      <field name="eth.addr" showname="Address: LiteonTe_4e:2e:21 (18:cf:5e:4e:2e:21)" size="6" pos="0" show="18:cf:5e:4e:2e:21" value="18cf5e4e2e21"/>
      <field name="eth.addr_resolved" showname="Address (resolved): LiteonTe_4e:2e:21" hide="yes" size="6" pos="0" show="LiteonTe_4e:2e:21" value="18cf5e4e2e21"/>
      <field name="eth.lg" showname=".... ..0. .... .... .... .... = LG bit: Globally unique address (factory default)" size="3" pos="0" show="0" value="0" unmaskedvalue="18cf5e"/>
      <field name="eth.ig" showname=".... ...0 .... .... .... .... = IG bit: Individual address (unicast)" size="3" pos="0" show="0" value="0" unmaskedvalue="18cf5e"/>
    </field>
    <field name="eth.src" showname="Source: HuaweiTe_30:02:68 (7c:b1:5d:30:02:68)" size="6" pos="6" show="7c:b1:5d:30:02:68" value="7cb15d300268">
      <field name="eth.src_resolved" showname="Source (resolved): HuaweiTe_30:02:68" hide="yes" size="6" pos="6" show="HuaweiTe_30:02:68" value="7cb15d300268"/>
      <field name="eth.addr" showname="Address: HuaweiTe_30:02:68 (7c:b1:5d:30:02:68)" size="6" pos="6" show="7c:b1:5d:30:02:68" value="7cb15d300268"/>
      <field name="eth.addr_resolved" showname="Address (resolved): HuaweiTe_30:02:68" hide="yes" size="6" pos="6" show="HuaweiTe_30:02:68" value="7cb15d300268"/>
      <field name="eth.lg" showname=".... ..0. .... .... .... .... = LG bit: Globally unique address (factory default)" size="3" pos="6" show="0" value="0" unmaskedvalue="7cb15d"/>
      <field name="eth.ig" showname=".... ...0 .... .... .... .... = IG bit: Individual address (unicast)" size="3" pos="6" show="0" value="0" unmaskedvalue="7cb15d"/>
    </field>
    <field name="eth.type" showname="Type: IPv4 (0x0800)" size="2" pos="12" show="0x00000800" value="0800"/>
  </proto>
  <proto name="ip" showname="Internet Protocol Version 4, Src: 104.16.60.37, Dst: 192.168.1.66" size="20" pos="14">
    <field name="ip.version" showname="0100 .... = Version: 4" size="1" pos="14" show="4" value="4" unmaskedvalue="45"/>
    <field name="ip.hdr_len" showname=".... 0101 = Header Length: 20 bytes (5)" size="1" pos="14" show="20" value="45"/>
    <field name="ip.dsfield" showname="Differentiated Services Field: 0x00 (DSCP: CS0, ECN: Not-ECT)" size="1" pos="15" show="0x00000000" value="00">
      <field name="ip.dsfield.dscp" showname="0000 00.. = Differentiated Services Codepoint: Default (0)" size="1" pos="15" show="0" value="0" unmaskedvalue="00"/>
      <field name="ip.dsfield.ecn" showname=".... ..00 = Explicit Congestion Notification: Not ECN-Capable Transport (0)" size="1" pos="15" show="0" value="0" unmaskedvalue="00"/>
    </field>
    <field name="ip.len" showname="Total Length: 80" size="2" pos="16" show="80" value="0050"/>
    <field name="ip.id" showname="Identification: 0xf4b3 (62643)" size="2" pos="18" show="0x0000f4b3" value="f4b3"/>
    <field name="ip.flags" showname="Flags: 0x4000, Don&#x27;t fragment" size="2" pos="20" show="0x00004000" value="4000">
      <field name="ip.flags.rb" showname="0... .... .... .... = Reserved bit: Not set" size="2" pos="20" show="0" value="0" unmaskedvalue="4000"/>
      <field name="ip.flags.df" showname=".1.. .... .... .... = Don&#x27;t fragment: Set" size="2" pos="20" show="1" value="1" unmaskedvalue="4000"/>
      <field name="ip.flags.mf" showname="..0. .... .... .... = More fragments: Not set" size="2" pos="20" show="0" value="0" unmaskedvalue="4000"/>
      <field name="ip.frag_offset" showname="...0 0000 0000 0000 = Fragment offset: 0" size="2" pos="20" show="0" value="0" unmaskedvalue="4000"/>
    </field>
    <field name="ip.ttl" showname="Time to live: 56" size="1" pos="22" show="56" value="38"/>
    <field name="ip.proto" showname="Protocol: TCP (6)" size="1" pos="23" show="6" value="06"/>
    <field name="ip.checksum" showname="Header checksum: 0xe7d4 [validation disabled]" size="2" pos="24" show="0x0000e7d4" value="e7d4"/>
    <field name="ip.checksum.status" showname="Header checksum status: Unverified" size="0" pos="24" show="2"/>
    <field name="ip.src" showname="Source: 104.16.60.37" size="4" pos="26" show="104.16.60.37" value="68103c25"/>
    <field name="ip.addr" showname="Source or Destination Address: 104.16.60.37" hide="yes" size="4" pos="26" show="104.16.60.37" value="68103c25"/>
    <field name="ip.src_host" showname="Source Host: 104.16.60.37" hide="yes" size="4" pos="26" show="104.16.60.37" value="68103c25"/>
    <field name="ip.host" showname="Source or Destination Host: 104.16.60.37" hide="yes" size="4" pos="26" show="104.16.60.37" value="68103c25"/>
    <field name="ip.dst" showname="Destination: 192.168.1.66" size="4" pos="30" show="192.168.1.66" value="c0a80142"/>
    <field name="ip.addr" showname="Source or Destination Address: 192.168.1.66" hide="yes" size="4" pos="30" show="192.168.1.66" value="c0a80142"/>
    <field name="ip.dst_host" showname="Destination Host: 192.168.1.66" hide="yes" size="4" pos="30" show="192.168.1.66" value="c0a80142"/>
    <field name="ip.host" showname="Source or Destination Host: 192.168.1.66" hide="yes" size="4" pos="30" show="192.168.1.66" value="c0a80142"/>
  </proto>
  <proto name="tcp" showname="Transmission Control Protocol, Src Port: 443, Dst Port: 51381, Seq: 1, Ack: 62, Len: 40" size="20" pos="34">
    <field name="tcp.srcport" showname="Source Port: 443" size="2" pos="34" show="443" value="01bb"/>
    <field name="tcp.dstport" showname="Destination Port: 51381" size="2" pos="36" show="51381" value="c8b5"/>
    <field name="tcp.port" showname="Source or Destination Port: 443" hide="yes" size="2" pos="34" show="443" value="01bb"/>
    <field name="tcp.port" showname="Source or Destination Port: 51381" hide="yes" size="2" pos="36" show="51381" value="c8b5"/>
    <field name="tcp.stream" showname="Stream index: 0" size="0" pos="34" show="0"/>
    <field name="tcp.len" showname="TCP Segment Len: 40" size="1" pos="46" show="40" value="50"/>
    <field name="tcp.seq" showname="Sequence number: 1    (relative sequence number)" size="4" pos="38" show="1" value="de912684"/>
    <field name="tcp.nxtseq" showname="Next sequence number: 41    (relative sequence number)" size="0" pos="34" show="41"/>
    <field name="tcp.ack" showname="Acknowledgment number: 62    (relative ack number)" size="4" pos="42" show="62" value="2a574e00"/>
    <field name="tcp.hdr_len" showname="0101 .... = Header Length: 20 bytes (5)" size="1" pos="46" show="20" value="50"/>
    <field name="tcp.flags" showname="Flags: 0x018 (PSH, ACK)" size="2" pos="46" show="0x00000018" value="18" unmaskedvalue="5018">
      <field name="tcp.flags.res" showname="000. .... .... = Reserved: Not set" size="1" pos="46" show="0" value="0" unmaskedvalue="50"/>
      <field name="tcp.flags.ns" showname="...0 .... .... = Nonce: Not set" size="1" pos="46" show="0" value="0" unmaskedvalue="50"/>
      <field name="tcp.flags.cwr" showname=".... 0... .... = Congestion Window Reduced (CWR): Not set" size="1" pos="47" show="0" value="0" unmaskedvalue="18"/>
      <field name="tcp.flags.ecn" showname=".... .0.. .... = ECN-Echo: Not set" size="1" pos="47" show="0" value="0" unmaskedvalue="18"/>
      <field name="tcp.flags.urg" showname=".... ..0. .... = Urgent: Not set" size="1" pos="47" show="0" value="0" unmaskedvalue="18"/>
      <field name="tcp.flags.ack" showname=".... ...1 .... = Acknowledgment: Set" size="1" pos="47" show="1" value="1" unmaskedvalue="18"/>
      <field name="tcp.flags.push" showname=".... .... 1... = Push: Set" size="1" pos="47" show="1" value="1" unmaskedvalue="18"/>
      <field name="tcp.flags.reset" showname=".... .... .0.. = Reset: Not set" size="1" pos="47" show="0" value="0" unmaskedvalue="18"/>
      <field name="tcp.flags.syn" showname=".... .... ..0. = Syn: Not set" size="1" pos="47" show="0" value="0" unmaskedvalue="18"/>
      <field name="tcp.flags.fin" showname=".... .... ...0 = Fin: Not set" size="1" pos="47" show="0" value="0" unmaskedvalue="18"/>
      <field name="tcp.flags.str" showname="TCP Flags: \xc2\xb7\xc2\xb7\xc2\xb7\xc2\xb7\xc2\xb7\xc2\xb7\xc2\xb7AP\xc2\xb7\xc2\xb7\xc2\xb7" size="2" pos="46" show="\xc2\xb7\xc2\xb7\xc2\xb7\xc2\xb7\xc2\xb7\xc2\xb7\xc2\xb7AP\xc2\xb7\xc2\xb7\xc2\xb7" value="5018"/>
    </field>
    <field name="tcp.window_size_value" showname="Window size value: 35255" size="2" pos="48" show="35255" value="89b7"/>
    <field name="tcp.window_size" showname="Calculated window size: 35255" size="2" pos="48" show="35255" value="89b7"/>
    <field name="tcp.window_size_scalefactor" showname="Window size scaling factor: -1 (unknown)" size="2" pos="48" show="-1" value="89b7"/>
    <field name="tcp.checksum" showname="Checksum: 0x9336 [unverified]" size="2" pos="50" show="0x00009336" value="9336"/>
    <field name="tcp.checksum.status" showname="Checksum Status: Unverified" size="0" pos="50" show="2"/>
    <field name="tcp.urgent_pointer" showname="Urgent pointer: 0" size="2" pos="52" show="0" value="0000"/>
    <field name="tcp.analysis" showname="SEQ/ACK analysis" size="0" pos="34" show="" value="">
      <field name="tcp.analysis.bytes_in_flight" showname="Bytes in flight: 40" size="0" pos="34" show="40"/>
      <field name="tcp.analysis.push_bytes_sent" showname="Bytes sent since last PSH flag: 40" size="0" pos="34" show="40"/>
    </field>
    <field name="" show="Timestamps" size="0" pos="34">
      <field name="tcp.time_relative" showname="Time since first frame in this TCP stream: 0.134122000 seconds" size="0" pos="34" show="0.134122000"/>
      <field name="tcp.time_delta" showname="Time since previous frame in this TCP stream: 0.065177000 seconds" size="0" pos="34" show="0.065177000"/>
    </field>
    <field name="tcp.payload" showname="TCP payload (40 bytes)" size="40" pos="54" show="17:03:03:00:23:00:00:00:00:00:00:0c:0f:76:25:56:ae:fa:f7:cb:0c:bb:f2:ad:15:96:ce:eb:e1:ef:6c:00:c5:47:9e:a5:c2:2f:74:1e" value="17030300230000000000000c0f762556aefaf7cb0cbbf2ad1596ceebe1ef6c00c5479ea5c22f741e"/>
  </proto>
  <proto name="ssl" showname="Secure Sockets Layer" size="40" pos="54">
    <field name="ssl.record" showname="TLSv1.2 Record Layer: Application Data Protocol: http-over-tls" size="40" pos="54" show="" value="">
      <field name="ssl.record.content_type" showname="Content Type: Application Data (23)" size="1" pos="54" show="23" value="17"/>
      <field name="ssl.record.version" showname="Version: TLS 1.2 (0x0303)" size="2" pos="55" show="0x00000303" value="0303"/>
      <field name="ssl.record.length" showname="Length: 35" size="2" pos="57" show="35" value="0023"/>
      <field name="ssl.app_data" showname="Encrypted Application Data: 0000000000000c0f762556aefaf7cb0cbbf2ad1596ceebe1..." size="35" pos="59" show="00:00:00:00:00:00:0c:0f:76:25:56:ae:fa:f7:cb:0c:bb:f2:ad:15:96:ce:eb:e1:ef:6c:00:c5:47:9e:a5:c2:2f:74:1e" value="0000000000000c0f762556aefaf7cb0cbbf2ad1596ceebe1ef6c00c5479ea5c22f741e"/>
    </field>
  </proto>
</packet>


<packet>
  <proto name="geninfo" pos="0" showname="General information" size="54">
    <field name="num" pos="0" show="4" showname="Number" value="4" size="54"/>
    <field name="len" pos="0" show="54" showname="Frame Length" value="36" size="54"/>
    <field name="caplen" pos="0" show="54" showname="Captured Length" value="36" size="54"/>
    <field name="timestamp" pos="0" show="Dec 11, 2018 21:06:41.633400000 Mountain Standard Time" showname="Captured Time" value="1544587601.633400000" size="54"/>
  </proto>
  <proto name="frame" showname="Frame 4: 54 bytes on wire (432 bits), 54 bytes captured (432 bits)" size="54" pos="0">
    <field name="frame.encap_type" showname="Encapsulation type: Ethernet (1)" size="0" pos="0" show="1"/>
    <field name="frame.time" showname="Arrival Time: Dec 11, 2018 21:06:41.633400000 Mountain Standard Time" size="0" pos="0" show="Dec 11, 2018 21:06:41.633400000 Mountain Standard Time"/>
    <field name="frame.offset_shift" showname="Time shift for this packet: 0.000000000 seconds" size="0" pos="0" show="0.000000000"/>
    <field name="frame.time_epoch" showname="Epoch Time: 1544587601.633400000 seconds" size="0" pos="0" show="1544587601.633400000"/>
    <field name="frame.time_delta" showname="Time delta from previous captured frame: 0.040078000 seconds" size="0" pos="0" show="0.040078000"/>
    <field name="frame.time_delta_displayed" showname="Time delta from previous displayed frame: 0.040078000 seconds" size="0" pos="0" show="0.040078000"/>
    <field name="frame.time_relative" showname="Time since reference or first frame: 0.174200000 seconds" size="0" pos="0" show="0.174200000"/>
    <field name="frame.number" showname="Frame Number: 4" size="0" pos="0" show="4"/>
    <field name="frame.len" showname="Frame Length: 54 bytes (432 bits)" size="0" pos="0" show="54"/>
    <field name="frame.cap_len" showname="Capture Length: 54 bytes (432 bits)" size="0" pos="0" show="54"/>
    <field name="frame.marked" showname="Frame is marked: False" size="0" pos="0" show="0"/>
    <field name="frame.ignored" showname="Frame is ignored: False" size="0" pos="0" show="0"/>
    <field name="frame.protocols" showname="Protocols in frame: eth:ethertype:ip:tcp" size="0" pos="0" show="eth:ethertype:ip:tcp"/>
  </proto>
  <proto name="eth" showname="Ethernet II, Src: LiteonTe_4e:2e:21 (18:cf:5e:4e:2e:21), Dst: HuaweiTe_30:02:68 (7c:b1:5d:30:02:68)" size="14" pos="0">
    <field name="eth.dst" showname="Destination: HuaweiTe_30:02:68 (7c:b1:5d:30:02:68)" size="6" pos="0" show="7c:b1:5d:30:02:68" value="7cb15d300268">
      <field name="eth.dst_resolved" showname="Destination (resolved): HuaweiTe_30:02:68" hide="yes" size="6" pos="0" show="HuaweiTe_30:02:68" value="7cb15d300268"/>
      <field name="eth.addr" showname="Address: HuaweiTe_30:02:68 (7c:b1:5d:30:02:68)" size="6" pos="0" show="7c:b1:5d:30:02:68" value="7cb15d300268"/>
      <field name="eth.addr_resolved" showname="Address (resolved): HuaweiTe_30:02:68" hide="yes" size="6" pos="0" show="HuaweiTe_30:02:68" value="7cb15d300268"/>
      <field name="eth.lg" showname=".... ..0. .... .... .... .... = LG bit: Globally unique address (factory default)" size="3" pos="0" show="0" value="0" unmaskedvalue="7cb15d"/>
      <field name="eth.ig" showname=".... ...0 .... .... .... .... = IG bit: Individual address (unicast)" size="3" pos="0" show="0" value="0" unmaskedvalue="7cb15d"/>
    </field>
    <field name="eth.src" showname="Source: LiteonTe_4e:2e:21 (18:cf:5e:4e:2e:21)" size="6" pos="6" show="18:cf:5e:4e:2e:21" value="18cf5e4e2e21">
      <field name="eth.src_resolved" showname="Source (resolved): LiteonTe_4e:2e:21" hide="yes" size="6" pos="6" show="LiteonTe_4e:2e:21" value="18cf5e4e2e21"/>
      <field name="eth.addr" showname="Address: LiteonTe_4e:2e:21 (18:cf:5e:4e:2e:21)" size="6" pos="6" show="18:cf:5e:4e:2e:21" value="18cf5e4e2e21"/>
      <field name="eth.addr_resolved" showname="Address (resolved): LiteonTe_4e:2e:21" hide="yes" size="6" pos="6" show="LiteonTe_4e:2e:21" value="18cf5e4e2e21"/>
      <field name="eth.lg" showname=".... ..0. .... .... .... .... = LG bit: Globally unique address (factory default)" size="3" pos="6" show="0" value="0" unmaskedvalue="18cf5e"/>
      <field name="eth.ig" showname=".... ...0 .... .... .... .... = IG bit: Individual address (unicast)" size="3" pos="6" show="0" value="0" unmaskedvalue="18cf5e"/>
    </field>
    <field name="eth.type" showname="Type: IPv4 (0x0800)" size="2" pos="12" show="0x00000800" value="0800"/>
  </proto>
  <proto name="ip" showname="Internet Protocol Version 4, Src: 192.168.1.66, Dst: 104.16.60.37" size="20" pos="14">
    <field name="ip.version" showname="0100 .... = Version: 4" size="1" pos="14" show="4" value="4" unmaskedvalue="45"/>
    <field name="ip.hdr_len" showname=".... 0101 = Header Length: 20 bytes (5)" size="1" pos="14" show="20" value="45"/>
    <field name="ip.dsfield" showname="Differentiated Services Field: 0x00 (DSCP: CS0, ECN: Not-ECT)" size="1" pos="15" show="0x00000000" value="00">
      <field name="ip.dsfield.dscp" showname="0000 00.. = Differentiated Services Codepoint: Default (0)" size="1" pos="15" show="0" value="0" unmaskedvalue="00"/>
      <field name="ip.dsfield.ecn" showname=".... ..00 = Explicit Congestion Notification: Not ECN-Capable Transport (0)" size="1" pos="15" show="0" value="0" unmaskedvalue="00"/>
    </field>
    <field name="ip.len" showname="Total Length: 40" size="2" pos="16" show="40" value="0028"/>
    <field name="ip.id" showname="Identification: 0x0b76 (2934)" size="2" pos="18" show="0x00000b76" value="0b76"/>
    <field name="ip.flags" showname="Flags: 0x4000, Don&#x27;t fragment" size="2" pos="20" show="0x00004000" value="4000">
      <field name="ip.flags.rb" showname="0... .... .... .... = Reserved bit: Not set" size="2" pos="20" show="0" value="0" unmaskedvalue="4000"/>
      <field name="ip.flags.df" showname=".1.. .... .... .... = Don&#x27;t fragment: Set" size="2" pos="20" show="1" value="1" unmaskedvalue="4000"/>
      <field name="ip.flags.mf" showname="..0. .... .... .... = More fragments: Not set" size="2" pos="20" show="0" value="0" unmaskedvalue="4000"/>
      <field name="ip.frag_offset" showname="...0 0000 0000 0000 = Fragment offset: 0" size="2" pos="20" show="0" value="0" unmaskedvalue="4000"/>
    </field>
    <field name="ip.ttl" showname="Time to live: 128" size="1" pos="22" show="128" value="80"/>
    <field name="ip.proto" showname="Protocol: TCP (6)" size="1" pos="23" show="6" value="06"/>
    <field name="ip.checksum" showname="Header checksum: 0x893a [validation disabled]" size="2" pos="24" show="0x0000893a" value="893a"/>
    <field name="ip.checksum.status" showname="Header checksum status: Unverified" size="0" pos="24" show="2"/>
    <field name="ip.src" showname="Source: 192.168.1.66" size="4" pos="26" show="192.168.1.66" value="c0a80142"/>
    <field name="ip.addr" showname="Source or Destination Address: 192.168.1.66" hide="yes" size="4" pos="26" show="192.168.1.66" value="c0a80142"/>
    <field name="ip.src_host" showname="Source Host: 192.168.1.66" hide="yes" size="4" pos="26" show="192.168.1.66" value="c0a80142"/>
    <field name="ip.host" showname="Source or Destination Host: 192.168.1.66" hide="yes" size="4" pos="26" show="192.168.1.66" value="c0a80142"/>
    <field name="ip.dst" showname="Destination: 104.16.60.37" size="4" pos="30" show="104.16.60.37" value="68103c25"/>
    <field name="ip.addr" showname="Source or Destination Address: 104.16.60.37" hide="yes" size="4" pos="30" show="104.16.60.37" value="68103c25"/>
    <field name="ip.dst_host" showname="Destination Host: 104.16.60.37" hide="yes" size="4" pos="30" show="104.16.60.37" value="68103c25"/>
    <field name="ip.host" showname="Source or Destination Host: 104.16.60.37" hide="yes" size="4" pos="30" show="104.16.60.37" value="68103c25"/>
  </proto>
  <proto name="tcp" showname="Transmission Control Protocol, Src Port: 51381, Dst Port: 443, Seq: 62, Ack: 41, Len: 0" size="20" pos="34">
    <field name="tcp.srcport" showname="Source Port: 51381" size="2" pos="34" show="51381" value="c8b5"/>
    <field name="tcp.dstport" showname="Destination Port: 443" size="2" pos="36" show="443" value="01bb"/>
    <field name="tcp.port" showname="Source or Destination Port: 51381" hide="yes" size="2" pos="34" show="51381" value="c8b5"/>
    <field name="tcp.port" showname="Source or Destination Port: 443" hide="yes" size="2" pos="36" show="443" value="01bb"/>
    <field name="tcp.stream" showname="Stream index: 0" size="0" pos="34" show="0"/>
    <field name="tcp.len" showname="TCP Segment Len: 0" size="1" pos="46" show="0" value="50"/>
    <field name="tcp.seq" showname="Sequence number: 62    (relative sequence number)" size="4" pos="38" show="62" value="2a574e00"/>
    <field name="tcp.nxtseq" showname="Next sequence number: 62    (relative sequence number)" size="0" pos="34" show="62"/>
    <field name="tcp.ack" showname="Acknowledgment number: 41    (relative ack number)" size="4" pos="42" show="41" value="de9126ac"/>
    <field name="tcp.hdr_len" showname="0101 .... = Header Length: 20 bytes (5)" size="1" pos="46" show="20" value="50"/>
    <field name="tcp.flags" showname="Flags: 0x010 (ACK)" size="2" pos="46" show="0x00000010" value="10" unmaskedvalue="5010">
      <field name="tcp.flags.res" showname="000. .... .... = Reserved: Not set" size="1" pos="46" show="0" value="0" unmaskedvalue="50"/>
      <field name="tcp.flags.ns" showname="...0 .... .... = Nonce: Not set" size="1" pos="46" show="0" value="0" unmaskedvalue="50"/>
      <field name="tcp.flags.cwr" showname=".... 0... .... = Congestion Window Reduced (CWR): Not set" size="1" pos="47" show="0" value="0" unmaskedvalue="10"/>
      <field name="tcp.flags.ecn" showname=".... .0.. .... = ECN-Echo: Not set" size="1" pos="47" show="0" value="0" unmaskedvalue="10"/>
      <field name="tcp.flags.urg" showname=".... ..0. .... = Urgent: Not set" size="1" pos="47" show="0" value="0" unmaskedvalue="10"/>
      <field name="tcp.flags.ack" showname=".... ...1 .... = Acknowledgment: Set" size="1" pos="47" show="1" value="1" unmaskedvalue="10"/>
      <field name="tcp.flags.push" showname=".... .... 0... = Push: Not set" size="1" pos="47" show="0" value="0" unmaskedvalue="10"/>
      <field name="tcp.flags.reset" showname=".... .... .0.. = Reset: Not set" size="1" pos="47" show="0" value="0" unmaskedvalue="10"/>
      <field name="tcp.flags.syn" showname=".... .... ..0. = Syn: Not set" size="1" pos="47" show="0" value="0" unmaskedvalue="10"/>
      <field name="tcp.flags.fin" showname=".... .... ...0 = Fin: Not set" size="1" pos="47" show="0" value="0" unmaskedvalue="10"/>
      <field name="tcp.flags.str" showname="TCP Flags: \xc2\xb7\xc2\xb7\xc2\xb7\xc2\xb7\xc2\xb7\xc2\xb7\xc2\xb7A\xc2\xb7\xc2\xb7\xc2\xb7\xc2\xb7" size="2" pos="46" show="\xc2\xb7\xc2\xb7\xc2\xb7\xc2\xb7\xc2\xb7\xc2\xb7\xc2\xb7A\xc2\xb7\xc2\xb7\xc2\xb7\xc2\xb7" value="5010"/>
    </field>
    <field name="tcp.window_size_value" showname="Window size value: 64143" size="2" pos="48" show="64143" value="fa8f"/>
    <field name="tcp.window_size" showname="Calculated window size: 64143" size="2" pos="48" show="64143" value="fa8f"/>
    <field name="tcp.window_size_scalefactor" showname="Window size scaling factor: -1 (unknown)" size="2" pos="48" show="-1" value="fa8f"/>
    <field name="tcp.checksum" showname="Checksum: 0x071f [unverified]" size="2" pos="50" show="0x0000071f" value="071f"/>
    <field name="tcp.checksum.status" showname="Checksum Status: Unverified" size="0" pos="50" show="2"/>
    <field name="tcp.urgent_pointer" showname="Urgent pointer: 0" size="2" pos="52" show="0" value="0000"/>
    <field name="tcp.analysis" showname="SEQ/ACK analysis" size="0" pos="34" show="" value="">
      <field name="tcp.analysis.acks_frame" showname="This is an ACK to the segment in frame: 3" size="0" pos="34" show="3"/>
      <field name="tcp.analysis.ack_rtt" showname="The RTT to ACK the segment was: 0.040078000 seconds" size="0" pos="34" show="0.040078000"/>
    </field>
    <field name="" show="Timestamps" size="0" pos="34">
      <field name="tcp.time_relative" showname="Time since first frame in this TCP stream: 0.174200000 seconds" size="0" pos="34" show="0.174200000"/>
      <field name="tcp.time_delta" showname="Time since previous frame in this TCP stream: 0.040078000 seconds" size="0" pos="34" show="0.040078000"/>
    </field>
  </proto>
</packet>


<packet>
  <proto name="geninfo" pos="0" showname="General information" size="107">
    <field name="num" pos="0" show="5" showname="Number" value="5" size="107"/>
    <field name="len" pos="0" show="107" showname="Frame Length" value="6b" size="107"/>
    <field name="caplen" pos="0" show="107" showname="Captured Length" value="6b" size="107"/>
    <field name="timestamp" pos="0" show="Dec 11, 2018 21:06:41.641592000 Mountain Standard Time" showname="Captured Time" value="1544587601.641592000" size="107"/>
  </proto>
  <proto name="frame" showname="Frame 5: 107 bytes on wire (856 bits), 107 bytes captured (856 bits)" size="107" pos="0">
    <field name="frame.encap_type" showname="Encapsulation type: Ethernet (1)" size="0" pos="0" show="1"/>
    <field name="frame.time" showname="Arrival Time: Dec 11, 2018 21:06:41.641592000 Mountain Standard Time" size="0" pos="0" show="Dec 11, 2018 21:06:41.641592000 Mountain Standard Time"/>
    <field name="frame.offset_shift" showname="Time shift for this packet: 0.000000000 seconds" size="0" pos="0" show="0.000000000"/>
    <field name="frame.time_epoch" showname="Epoch Time: 1544587601.641592000 seconds" size="0" pos="0" show="1544587601.641592000"/>
    <field name="frame.time_delta" showname="Time delta from previous captured frame: 0.008192000 seconds" size="0" pos="0" show="0.008192000"/>
    <field name="frame.time_delta_displayed" showname="Time delta from previous displayed frame: 0.008192000 seconds" size="0" pos="0" show="0.008192000"/>
    <field name="frame.time_relative" showname="Time since reference or first frame: 0.182392000 seconds" size="0" pos="0" show="0.182392000"/>
    <field name="frame.number" showname="Frame Number: 5" size="0" pos="0" show="5"/>
    <field name="frame.len" showname="Frame Length: 107 bytes (856 bits)" size="0" pos="0" show="107"/>
    <field name="frame.cap_len" showname="Capture Length: 107 bytes (856 bits)" size="0" pos="0" show="107"/>
    <field name="frame.marked" showname="Frame is marked: False" size="0" pos="0" show="0"/>
    <field name="frame.ignored" showname="Frame is ignored: False" size="0" pos="0" show="0"/>
    <field name="frame.protocols" showname="Protocols in frame: eth:ethertype:ip:udp:data" size="0" pos="0" show="eth:ethertype:ip:udp:data"/>
  </proto>
  <proto name="eth" showname="Ethernet II, Src: LiteonTe_4e:2e:21 (18:cf:5e:4e:2e:21), Dst: HuaweiTe_30:02:68 (7c:b1:5d:30:02:68)" size="14" pos="0">
    <field name="eth.dst" showname="Destination: HuaweiTe_30:02:68 (7c:b1:5d:30:02:68)" size="6" pos="0" show="7c:b1:5d:30:02:68" value="7cb15d300268">
      <field name="eth.dst_resolved" showname="Destination (resolved): HuaweiTe_30:02:68" hide="yes" size="6" pos="0" show="HuaweiTe_30:02:68" value="7cb15d300268"/>
      <field name="eth.addr" showname="Address: HuaweiTe_30:02:68 (7c:b1:5d:30:02:68)" size="6" pos="0" show="7c:b1:5d:30:02:68" value="7cb15d300268"/>
      <field name="eth.addr_resolved" showname="Address (resolved): HuaweiTe_30:02:68" hide="yes" size="6" pos="0" show="HuaweiTe_30:02:68" value="7cb15d300268"/>
      <field name="eth.lg" showname=".... ..0. .... .... .... .... = LG bit: Globally unique address (factory default)" size="3" pos="0" show="0" value="0" unmaskedvalue="7cb15d"/>
      <field name="eth.ig" showname=".... ...0 .... .... .... .... = IG bit: Individual address (unicast)" size="3" pos="0" show="0" value="0" unmaskedvalue="7cb15d"/>
    </field>
    <field name="eth.src" showname="Source: LiteonTe_4e:2e:21 (18:cf:5e:4e:2e:21)" size="6" pos="6" show="18:cf:5e:4e:2e:21" value="18cf5e4e2e21">
      <field name="eth.src_resolved" showname="Source (resolved): LiteonTe_4e:2e:21" hide="yes" size="6" pos="6" show="LiteonTe_4e:2e:21" value="18cf5e4e2e21"/>
      <field name="eth.addr" showname="Address: LiteonTe_4e:2e:21 (18:cf:5e:4e:2e:21)" size="6" pos="6" show="18:cf:5e:4e:2e:21" value="18cf5e4e2e21"/>
      <field name="eth.addr_resolved" showname="Address (resolved): LiteonTe_4e:2e:21" hide="yes" size="6" pos="6" show="LiteonTe_4e:2e:21" value="18cf5e4e2e21"/>
      <field name="eth.lg" showname=".... ..0. .... .... .... .... = LG bit: Globally unique address (factory default)" size="3" pos="6" show="0" value="0" unmaskedvalue="18cf5e"/>
      <field name="eth.ig" showname=".... ...0 .... .... .... .... = IG bit: Individual address (unicast)" size="3" pos="6" show="0" value="0" unmaskedvalue="18cf5e"/>
    </field>
    <field name="eth.type" showname="Type: IPv4 (0x0800)" size="2" pos="12" show="0x00000800" value="0800"/>
  </proto>
  <proto name="ip" showname="Internet Protocol Version 4, Src: 192.168.1.66, Dst: 94.71.220.40" size="20" pos="14">
    <field name="ip.version" showname="0100 .... = Version: 4" size="1" pos="14" show="4" value="4" unmaskedvalue="45"/>
    <field name="ip.hdr_len" showname=".... 0101 = Header Length: 20 bytes (5)" size="1" pos="14" show="20" value="45"/>
    <field name="ip.dsfield" showname="Differentiated Services Field: 0x00 (DSCP: CS0, ECN: Not-ECT)" size="1" pos="15" show="0x00000000" value="00">
      <field name="ip.dsfield.dscp" showname="0000 00.. = Differentiated Services Codepoint: Default (0)" size="1" pos="15" show="0" value="0" unmaskedvalue="00"/>
      <field name="ip.dsfield.ecn" showname=".... ..00 = Explicit Congestion Notification: Not ECN-Capable Transport (0)" size="1" pos="15" show="0" value="0" unmaskedvalue="00"/>
    </field>
    <field name="ip.len" showname="Total Length: 93" size="2" pos="16" show="93" value="005d"/>
    <field name="ip.id" showname="Identification: 0x3daf (15791)" size="2" pos="18" show="0x00003daf" value="3daf"/>
    <field name="ip.flags" showname="Flags: 0x0000" size="2" pos="20" show="0x00000000" value="0000">
      <field name="ip.flags.rb" showname="0... .... .... .... = Reserved bit: Not set" size="2" pos="20" show="0" value="0" unmaskedvalue="0000"/>
      <field name="ip.flags.df" showname=".0.. .... .... .... = Don&#x27;t fragment: Not set" size="2" pos="20" show="0" value="0" unmaskedvalue="0000"/>
      <field name="ip.flags.mf" showname="..0. .... .... .... = More fragments: Not set" size="2" pos="20" show="0" value="0" unmaskedvalue="0000"/>
      <field name="ip.frag_offset" showname="...0 0000 0000 0000 = Fragment offset: 0" size="2" pos="20" show="0" value="0" unmaskedvalue="0000"/>
    </field>
    <field name="ip.ttl" showname="Time to live: 128" size="1" pos="22" show="128" value="80"/>
    <field name="ip.proto" showname="Protocol: UDP (17)" size="1" pos="23" show="17" value="11"/>
    <field name="ip.checksum" showname="Header checksum: 0x0087 [validation disabled]" size="2" pos="24" show="0x00000087" value="0087"/>
    <field name="ip.checksum.status" showname="Header checksum status: Unverified" size="0" pos="24" show="2"/>
    <field name="ip.src" showname="Source: 192.168.1.66" size="4" pos="26" show="192.168.1.66" value="c0a80142"/>
    <field name="ip.addr" showname="Source or Destination Address: 192.168.1.66" hide="yes" size="4" pos="26" show="192.168.1.66" value="c0a80142"/>
    <field name="ip.src_host" showname="Source Host: 192.168.1.66" hide="yes" size="4" pos="26" show="192.168.1.66" value="c0a80142"/>
    <field name="ip.host" showname="Source or Destination Host: 192.168.1.66" hide="yes" size="4" pos="26" show="192.168.1.66" value="c0a80142"/>
    <field name="ip.dst" showname="Destination: 94.71.220.40" size="4" pos="30" show="94.71.220.40" value="5e47dc28"/>
    <field name="ip.addr" showname="Source or Destination Address: 94.71.220.40" hide="yes" size="4" pos="30" show="94.71.220.40" value="5e47dc28"/>
    <field name="ip.dst_host" showname="Destination Host: 94.71.220.40" hide="yes" size="4" pos="30" show="94.71.220.40" value="5e47dc28"/>
    <field name="ip.host" showname="Source or Destination Host: 94.71.220.40" hide="yes" size="4" pos="30" show="94.71.220.40" value="5e47dc28"/>
  </proto>
  <proto name="udp" showname="User Datagram Protocol, Src Port: 6881, Dst Port: 51413" size="8" pos="34">
    <field name="udp.srcport" showname="Source Port: 6881" size="2" pos="34" show="6881" value="1ae1"/>
    <field name="udp.dstport" showname="Destination Port: 51413" size="2" pos="36" show="51413" value="c8d5"/>
    <field name="udp.port" showname="Source or Destination Port: 6881" hide="yes" size="2" pos="34" show="6881" value="1ae1"/>
    <field name="udp.port" showname="Source or Destination Port: 51413" hide="yes" size="2" pos="36" show="51413" value="c8d5"/>
    <field name="udp.length" showname="Length: 73" size="2" pos="38" show="73" value="0049"/>
    <field name="udp.checksum" showname="Checksum: 0xa603 [unverified]" size="2" pos="40" show="0x0000a603" value="a603"/>
    <field name="udp.checksum.status" showname="Checksum Status: Unverified" size="0" pos="40" show="2"/>
    <field name="udp.stream" showname="Stream index: 0" size="0" pos="42" show="0"/>
  </proto>
  <proto name="fake-field-wrapper">
    <field name="data" value="64313a6164323a696432303ab5bbdbfb7bcdb73dbceb8942ba64621ce6b705e265313a71343a70696e67313a74323a70fb313a76343a4c540102313a79313a7165">
      <field name="data.data" showname="Data: 64313a6164323a696432303ab5bbdbfb7bcdb73dbceb8942..." size="65" pos="42" show="64:31:3a:61:64:32:3a:69:64:32:30:3a:b5:bb:db:fb:7b:cd:b7:3d:bc:eb:89:42:ba:64:62:1c:e6:b7:05:e2:65:31:3a:71:34:3a:70:69:6e:67:31:3a:74:32:3a:70:fb:31:3a:76:34:3a:4c:54:01:02:31:3a:79:31:3a:71:65" value="64313a6164323a696432303ab5bbdbfb7bcdb73dbceb8942ba64621ce6b705e265313a71343a70696e67313a74323a70fb313a76343a4c540102313a79313a7165"/>
      <field name="data.len" showname="Length: 65" size="0" pos="42" show="65"/>
  </field>
  </proto>
</packet>


<packet>
  <proto name="geninfo" pos="0" showname="General information" size="89">
    <field name="num" pos="0" show="6" showname="Number" value="6" size="89"/>
    <field name="len" pos="0" show="89" showname="Frame Length" value="59" size="89"/>
    <field name="caplen" pos="0" show="89" showname="Captured Length" value="59" size="89"/>
    <field name="timestamp" pos="0" show="Dec 11, 2018 21:06:41.872159000 Mountain Standard Time" showname="Captured Time" value="1544587601.872159000" size="89"/>
  </proto>
  <proto name="frame" showname="Frame 6: 89 bytes on wire (712 bits), 89 bytes captured (712 bits)" size="89" pos="0">
    <field name="frame.encap_type" showname="Encapsulation type: Ethernet (1)" size="0" pos="0" show="1"/>
    <field name="frame.time" showname="Arrival Time: Dec 11, 2018 21:06:41.872159000 Mountain Standard Time" size="0" pos="0" show="Dec 11, 2018 21:06:41.872159000 Mountain Standard Time"/>
    <field name="frame.offset_shift" showname="Time shift for this packet: 0.000000000 seconds" size="0" pos="0" show="0.000000000"/>
    <field name="frame.time_epoch" showname="Epoch Time: 1544587601.872159000 seconds" size="0" pos="0" show="1544587601.872159000"/>
    <field name="frame.time_delta" showname="Time delta from previous captured frame: 0.230567000 seconds" size="0" pos="0" show="0.230567000"/>
    <field name="frame.time_delta_displayed" showname="Time delta from previous displayed frame: 0.230567000 seconds" size="0" pos="0" show="0.230567000"/>
    <field name="frame.time_relative" showname="Time since reference or first frame: 0.412959000 seconds" size="0" pos="0" show="0.412959000"/>
    <field name="frame.number" showname="Frame Number: 6" size="0" pos="0" show="6"/>
    <field name="frame.len" showname="Frame Length: 89 bytes (712 bits)" size="0" pos="0" show="89"/>
    <field name="frame.cap_len" showname="Capture Length: 89 bytes (712 bits)" size="0" pos="0" show="89"/>
    <field name="frame.marked" showname="Frame is marked: False" size="0" pos="0" show="0"/>
    <field name="frame.ignored" showname="Frame is ignored: False" size="0" pos="0" show="0"/>
    <field name="frame.protocols" showname="Protocols in frame: eth:ethertype:ip:udp:data" size="0" pos="0" show="eth:ethertype:ip:udp:data"/>
  </proto>
  <proto name="eth" showname="Ethernet II, Src: HuaweiTe_30:02:68 (7c:b1:5d:30:02:68), Dst: LiteonTe_4e:2e:21 (18:cf:5e:4e:2e:21)" size="14" pos="0">
    <field name="eth.dst" showname="Destination: LiteonTe_4e:2e:21 (18:cf:5e:4e:2e:21)" size="6" pos="0" show="18:cf:5e:4e:2e:21" value="18cf5e4e2e21">
      <field name="eth.dst_resolved" showname="Destination (resolved): LiteonTe_4e:2e:21" hide="yes" size="6" pos="0" show="LiteonTe_4e:2e:21" value="18cf5e4e2e21"/>
      <field name="eth.addr" showname="Address: LiteonTe_4e:2e:21 (18:cf:5e:4e:2e:21)" size="6" pos="0" show="18:cf:5e:4e:2e:21" value="18cf5e4e2e21"/>
      <field name="eth.addr_resolved" showname="Address (resolved): LiteonTe_4e:2e:21" hide="yes" size="6" pos="0" show="LiteonTe_4e:2e:21" value="18cf5e4e2e21"/>
      <field name="eth.lg" showname=".... ..0. .... .... .... .... = LG bit: Globally unique address (factory default)" size="3" pos="0" show="0" value="0" unmaskedvalue="18cf5e"/>
      <field name="eth.ig" showname=".... ...0 .... .... .... .... = IG bit: Individual address (unicast)" size="3" pos="0" show="0" value="0" unmaskedvalue="18cf5e"/>
    </field>
    <field name="eth.src" showname="Source: HuaweiTe_30:02:68 (7c:b1:5d:30:02:68)" size="6" pos="6" show="7c:b1:5d:30:02:68" value="7cb15d300268">
      <field name="eth.src_resolved" showname="Source (resolved): HuaweiTe_30:02:68" hide="yes" size="6" pos="6" show="HuaweiTe_30:02:68" value="7cb15d300268"/>
      <field name="eth.addr" showname="Address: HuaweiTe_30:02:68 (7c:b1:5d:30:02:68)" size="6" pos="6" show="7c:b1:5d:30:02:68" value="7cb15d300268"/>
      <field name="eth.addr_resolved" showname="Address (resolved): HuaweiTe_30:02:68" hide="yes" size="6" pos="6" show="HuaweiTe_30:02:68" value="7cb15d300268"/>
      <field name="eth.lg" showname=".... ..0. .... .... .... .... = LG bit: Globally unique address (factory default)" size="3" pos="6" show="0" value="0" unmaskedvalue="7cb15d"/>
      <field name="eth.ig" showname=".... ...0 .... .... .... .... = IG bit: Individual address (unicast)" size="3" pos="6" show="0" value="0" unmaskedvalue="7cb15d"/>
    </field>
    <field name="eth.type" showname="Type: IPv4 (0x0800)" size="2" pos="12" show="0x00000800" value="0800"/>
  </proto>
  <proto name="ip" showname="Internet Protocol Version 4, Src: 94.71.220.40, Dst: 192.168.1.66" size="20" pos="14">
    <field name="ip.version" showname="0100 .... = Version: 4" size="1" pos="14" show="4" value="4" unmaskedvalue="45"/>
    <field name="ip.hdr_len" showname=".... 0101 = Header Length: 20 bytes (5)" size="1" pos="14" show="20" value="45"/>
    <field name="ip.dsfield" showname="Differentiated Services Field: 0x00 (DSCP: CS0, ECN: Not-ECT)" size="1" pos="15" show="0x00000000" value="00">
      <field name="ip.dsfield.dscp" showname="0000 00.. = Differentiated Services Codepoint: Default (0)" size="1" pos="15" show="0" value="0" unmaskedvalue="00"/>
      <field name="ip.dsfield.ecn" showname=".... ..00 = Explicit Congestion Notification: Not ECN-Capable Transport (0)" size="1" pos="15" show="0" value="0" unmaskedvalue="00"/>
    </field>
    <field name="ip.len" showname="Total Length: 75" size="2" pos="16" show="75" value="004b"/>
    <field name="ip.id" showname="Identification: 0xdef8 (57080)" size="2" pos="18" show="0x0000def8" value="def8"/>
    <field name="ip.flags" showname="Flags: 0x4000, Don&#x27;t fragment" size="2" pos="20" show="0x00004000" value="4000">
      <field name="ip.flags.rb" showname="0... .... .... .... = Reserved bit: Not set" size="2" pos="20" show="0" value="0" unmaskedvalue="4000"/>
      <field name="ip.flags.df" showname=".1.. .... .... .... = Don&#x27;t fragment: Set" size="2" pos="20" show="1" value="1" unmaskedvalue="4000"/>
      <field name="ip.flags.mf" showname="..0. .... .... .... = More fragments: Not set" size="2" pos="20" show="0" value="0" unmaskedvalue="4000"/>
      <field name="ip.frag_offset" showname="...0 0000 0000 0000 = Fragment offset: 0" size="2" pos="20" show="0" value="0" unmaskedvalue="4000"/>
    </field>
    <field name="ip.ttl" showname="Time to live: 51" size="1" pos="22" show="51" value="33"/>
    <field name="ip.proto" showname="Protocol: UDP (17)" size="1" pos="23" show="17" value="11"/>
    <field name="ip.checksum" showname="Header checksum: 0x6c4f [validation disabled]" size="2" pos="24" show="0x00006c4f" value="6c4f"/>
    <field name="ip.checksum.status" showname="Header checksum status: Unverified" size="0" pos="24" show="2"/>
    <field name="ip.src" showname="Source: 94.71.220.40" size="4" pos="26" show="94.71.220.40" value="5e47dc28"/>
    <field name="ip.addr" showname="Source or Destination Address: 94.71.220.40" hide="yes" size="4" pos="26" show="94.71.220.40" value="5e47dc28"/>
    <field name="ip.src_host" showname="Source Host: 94.71.220.40" hide="yes" size="4" pos="26" show="94.71.220.40" value="5e47dc28"/>
    <field name="ip.host" showname="Source or Destination Host: 94.71.220.40" hide="yes" size="4" pos="26" show="94.71.220.40" value="5e47dc28"/>
    <field name="ip.dst" showname="Destination: 192.168.1.66" size="4" pos="30" show="192.168.1.66" value="c0a80142"/>
    <field name="ip.addr" showname="Source or Destination Address: 192.168.1.66" hide="yes" size="4" pos="30" show="192.168.1.66" value="c0a80142"/>
    <field name="ip.dst_host" showname="Destination Host: 192.168.1.66" hide="yes" size="4" pos="30" show="192.168.1.66" value="c0a80142"/>
    <field name="ip.host" showname="Source or Destination Host: 192.168.1.66" hide="yes" size="4" pos="30" show="192.168.1.66" value="c0a80142"/>
  </proto>
  <proto name="udp" showname="User Datagram Protocol, Src Port: 51413, Dst Port: 6881" size="8" pos="34">
    <field name="udp.srcport" showname="Source Port: 51413" size="2" pos="34" show="51413" value="c8d5"/>
    <field name="udp.dstport" showname="Destination Port: 6881" size="2" pos="36" show="6881" value="1ae1"/>
    <field name="udp.port" showname="Source or Destination Port: 51413" hide="yes" size="2" pos="34" show="51413" value="c8d5"/>
    <field name="udp.port" showname="Source or Destination Port: 6881" hide="yes" size="2" pos="36" show="6881" value="1ae1"/>
    <field name="udp.length" showname="Length: 55" size="2" pos="38" show="55" value="0037"/>
    <field name="udp.checksum" showname="Checksum: 0xe288 [unverified]" size="2" pos="40" show="0x0000e288" value="e288"/>
    <field name="udp.checksum.status" showname="Checksum Status: Unverified" size="0" pos="40" show="2"/>
    <field name="udp.stream" showname="Stream index: 0" size="0" pos="42" show="0"/>
  </proto>
  <proto name="fake-field-wrapper">
    <field name="data" value="64313a7264323a696432303aa382be286dff8d197a8f9dd4e1a072f1ec2128a465313a74323a70fb313a79313a7265">
      <field name="data.data" showname="Data: 64313a7264323a696432303aa382be286dff8d197a8f9dd4..." size="47" pos="42" show="64:31:3a:72:64:32:3a:69:64:32:30:3a:a3:82:be:28:6d:ff:8d:19:7a:8f:9d:d4:e1:a0:72:f1:ec:21:28:a4:65:31:3a:74:32:3a:70:fb:31:3a:79:31:3a:72:65" value="64313a7264323a696432303aa382be286dff8d197a8f9dd4e1a072f1ec2128a465313a74323a70fb313a79313a7265"/>
      <field name="data.len" showname="Length: 47" size="0" pos="42" show="47"/>
  </field>
  </proto>
</packet>


<packet>
  <proto name="geninfo" pos="0" showname="General information" size="74">
    <field name="num" pos="0" show="7" showname="Number" value="7" size="74"/>
    <field name="len" pos="0" show="74" showname="Frame Length" value="4a" size="74"/>
    <field name="caplen" pos="0" show="74" showname="Captured Length" value="4a" size="74"/>
    <field name="timestamp" pos="0" show="Dec 11, 2018 21:06:41.947514000 Mountain Standard Time" showname="Captured Time" value="1544587601.947514000" size="74"/>
  </proto>
  <proto name="frame" showname="Frame 7: 74 bytes on wire (592 bits), 74 bytes captured (592 bits)" size="74" pos="0">
    <field name="frame.encap_type" showname="Encapsulation type: Ethernet (1)" size="0" pos="0" show="1"/>
    <field name="frame.time" showname="Arrival Time: Dec 11, 2018 21:06:41.947514000 Mountain Standard Time" size="0" pos="0" show="Dec 11, 2018 21:06:41.947514000 Mountain Standard Time"/>
    <field name="frame.offset_shift" showname="Time shift for this packet: 0.000000000 seconds" size="0" pos="0" show="0.000000000"/>
    <field name="frame.time_epoch" showname="Epoch Time: 1544587601.947514000 seconds" size="0" pos="0" show="1544587601.947514000"/>
    <field name="frame.time_delta" showname="Time delta from previous captured frame: 0.075355000 seconds" size="0" pos="0" show="0.075355000"/>
    <field name="frame.time_delta_displayed" showname="Time delta from previous displayed frame: 0.075355000 seconds" size="0" pos="0" show="0.075355000"/>
    <field name="frame.time_relative" showname="Time since reference or first frame: 0.488314000 seconds" size="0" pos="0" show="0.488314000"/>
    <field name="frame.number" showname="Frame Number: 7" size="0" pos="0" show="7"/>
    <field name="frame.len" showname="Frame Length: 74 bytes (592 bits)" size="0" pos="0" show="74"/>
    <field name="frame.cap_len" showname="Capture Length: 74 bytes (592 bits)" size="0" pos="0" show="74"/>
    <field name="frame.marked" showname="Frame is marked: False" size="0" pos="0" show="0"/>
    <field name="frame.ignored" showname="Frame is ignored: False" size="0" pos="0" show="0"/>
    <field name="frame.protocols" showname="Protocols in frame: eth:ethertype:ipv6:tcp" size="0" pos="0" show="eth:ethertype:ipv6:tcp"/>
  </proto>
  <proto name="eth" showname="Ethernet II, Src: HuaweiTe_30:02:68 (7c:b1:5d:30:02:68), Dst: LiteonTe_4e:2e:21 (18:cf:5e:4e:2e:21)" size="14" pos="0">
    <field name="eth.dst" showname="Destination: LiteonTe_4e:2e:21 (18:cf:5e:4e:2e:21)" size="6" pos="0" show="18:cf:5e:4e:2e:21" value="18cf5e4e2e21">
      <field name="eth.dst_resolved" showname="Destination (resolved): LiteonTe_4e:2e:21" hide="yes" size="6" pos="0" show="LiteonTe_4e:2e:21" value="18cf5e4e2e21"/>
      <field name="eth.addr" showname="Address: LiteonTe_4e:2e:21 (18:cf:5e:4e:2e:21)" size="6" pos="0" show="18:cf:5e:4e:2e:21" value="18cf5e4e2e21"/>
      <field name="eth.addr_resolved" showname="Address (resolved): LiteonTe_4e:2e:21" hide="yes" size="6" pos="0" show="LiteonTe_4e:2e:21" value="18cf5e4e2e21"/>
      <field name="eth.lg" showname=".... ..0. .... .... .... .... = LG bit: Globally unique address (factory default)" size="3" pos="0" show="0" value="0" unmaskedvalue="18cf5e"/>
      <field name="eth.ig" showname=".... ...0 .... .... .... .... = IG bit: Individual address (unicast)" size="3" pos="0" show="0" value="0" unmaskedvalue="18cf5e"/>
    </field>
    <field name="eth.src" showname="Source: HuaweiTe_30:02:68 (7c:b1:5d:30:02:68)" size="6" pos="6" show="7c:b1:5d:30:02:68" value="7cb15d300268">
      <field name="eth.src_resolved" showname="Source (resolved): HuaweiTe_30:02:68" hide="yes" size="6" pos="6" show="HuaweiTe_30:02:68" value="7cb15d300268"/>
      <field name="eth.addr" showname="Address: HuaweiTe_30:02:68 (7c:b1:5d:30:02:68)" size="6" pos="6" show="7c:b1:5d:30:02:68" value="7cb15d300268"/>
      <field name="eth.addr_resolved" showname="Address (resolved): HuaweiTe_30:02:68" hide="yes" size="6" pos="6" show="HuaweiTe_30:02:68" value="7cb15d300268"/>
      <field name="eth.lg" showname=".... ..0. .... .... .... .... = LG bit: Globally unique address (factory default)" size="3" pos="6" show="0" value="0" unmaskedvalue="7cb15d"/>
      <field name="eth.ig" showname=".... ...0 .... .... .... .... = IG bit: Individual address (unicast)" size="3" pos="6" show="0" value="0" unmaskedvalue="7cb15d"/>
    </field>
    <field name="eth.type" showname="Type: IPv6 (0x86dd)" size="2" pos="12" show="0x000086dd" value="86dd"/>
  </proto>
  <proto name="ipv6" showname="Internet Protocol Version 6, Src: 2806:1010:cfff:2::10, Dst: 2806:1016:d:8ca7:e1f3:d:61b3:914b" size="40" pos="14">
    <field name="ipv6.version" showname="0110 .... = Version: 6" size="1" pos="14" show="6" value="6" unmaskedvalue="60"/>
    <field name="ip.version" showname="0110 .... = Version: 6 [This field makes the filter match on &quot;ip.version == 6&quot; possible]" hide="yes" size="1" pos="14" show="6" value="6" unmaskedvalue="60"/>
    <field name="ipv6.tclass" showname=".... 0000 0000 .... .... .... .... .... = Traffic Class: 0x00 (DSCP: CS0, ECN: Not-ECT)" size="4" pos="14" show="0x00000000" value="0" unmaskedvalue="6004c802">
      <field name="ipv6.tclass.dscp" showname=".... 0000 00.. .... .... .... .... .... = Differentiated Services Codepoint: Default (0)" size="4" pos="14" show="0" value="0" unmaskedvalue="6004c802"/>
      <field name="ipv6.tclass.ecn" showname=".... .... ..00 .... .... .... .... .... = Explicit Congestion Notification: Not ECN-Capable Transport (0)" size="4" pos="14" show="0" value="0" unmaskedvalue="6004c802"/>
    </field>
    <field name="ipv6.flow" showname=".... .... .... 0100 1100 1000 0000 0010 = Flow Label: 0x4c802" size="4" pos="14" show="0x0004c802" value="4C802" unmaskedvalue="6004c802"/>
    <field name="ipv6.plen" showname="Payload Length: 20" size="2" pos="18" show="20" value="0014"/>
    <field name="ipv6.nxt" showname="Next Header: TCP (6)" size="1" pos="20" show="6" value="06"/>
    <field name="ipv6.hlim" showname="Hop Limit: 61" size="1" pos="21" show="61" value="3d"/>
    <field name="ipv6.src" showname="Source: 2806:1010:cfff:2::10" size="16" pos="22" show="2806:1010:cfff:2::10" value="28061010cfff00020000000000000010"/>
    <field name="ipv6.addr" showname="Source or Destination Address: 2806:1010:cfff:2::10" hide="yes" size="16" pos="22" show="2806:1010:cfff:2::10" value="28061010cfff00020000000000000010"/>
    <field name="ipv6.src_host" showname="Source Host: 2806:1010:cfff:2::10" hide="yes" size="16" pos="22" show="2806:1010:cfff:2::10" value="28061010cfff00020000000000000010"/>
    <field name="ipv6.host" showname="Source or Destination Host: 2806:1010:cfff:2::10" hide="yes" size="16" pos="22" show="2806:1010:cfff:2::10" value="28061010cfff00020000000000000010"/>
    <field name="ipv6.dst" showname="Destination: 2806:1016:d:8ca7:e1f3:d:61b3:914b" size="16" pos="38" show="2806:1016:d:8ca7:e1f3:d:61b3:914b" value="28061016000d8ca7e1f3000d61b3914b"/>
    <field name="ipv6.addr" showname="Source or Destination Address: 2806:1016:d:8ca7:e1f3:d:61b3:914b" hide="yes" size="16" pos="38" show="2806:1016:d:8ca7:e1f3:d:61b3:914b" value="28061016000d8ca7e1f3000d61b3914b"/>
    <field name="ipv6.dst_host" showname="Destination Host: 2806:1016:d:8ca7:e1f3:d:61b3:914b" hide="yes" size="16" pos="38" show="2806:1016:d:8ca7:e1f3:d:61b3:914b" value="28061016000d8ca7e1f3000d61b3914b"/>
    <field name="ipv6.host" showname="Source or Destination Host: 2806:1016:d:8ca7:e1f3:d:61b3:914b" hide="yes" size="16" pos="38" show="2806:1016:d:8ca7:e1f3:d:61b3:914b" value="28061016000d8ca7e1f3000d61b3914b"/>
  </proto>
  <proto name="tcp" showname="Transmission Control Protocol, Src Port: 443, Dst Port: 52060, Seq: 1, Ack: 1, Len: 0" size="20" pos="54">
    <field name="tcp.srcport" showname="Source Port: 443" size="2" pos="54" show="443" value="01bb"/>
    <field name="tcp.dstport" showname="Destination Port: 52060" size="2" pos="56" show="52060" value="cb5c"/>
    <field name="tcp.port" showname="Source or Destination Port: 443" hide="yes" size="2" pos="54" show="443" value="01bb"/>
    <field name="tcp.port" showname="Source or Destination Port: 52060" hide="yes" size="2" pos="56" show="52060" value="cb5c"/>
    <field name="tcp.stream" showname="Stream index: 1" size="0" pos="54" show="1"/>
    <field name="tcp.len" showname="TCP Segment Len: 0" size="1" pos="66" show="0" value="50"/>
    <field name="tcp.seq" showname="Sequence number: 1    (relative sequence number)" size="4" pos="58" show="1" value="ba39f336"/>
    <field name="tcp.nxtseq" showname="Next sequence number: 1    (relative sequence number)" size="0" pos="54" show="1"/>
    <field name="tcp.ack" showname="Acknowledgment number: 1    (relative ack number)" size="4" pos="62" show="1" value="7eb227b8"/>
    <field name="tcp.hdr_len" showname="0101 .... = Header Length: 20 bytes (5)" size="1" pos="66" show="20" value="50"/>
    <field name="tcp.flags" showname="Flags: 0x011 (FIN, ACK)" size="2" pos="66" show="0x00000011" value="11" unmaskedvalue="5011">
      <field name="tcp.flags.res" showname="000. .... .... = Reserved: Not set" size="1" pos="66" show="0" value="0" unmaskedvalue="50"/>
      <field name="tcp.flags.ns" showname="...0 .... .... = Nonce: Not set" size="1" pos="66" show="0" value="0" unmaskedvalue="50"/>
      <field name="tcp.flags.cwr" showname=".... 0... .... = Congestion Window Reduced (CWR): Not set" size="1" pos="67" show="0" value="0" unmaskedvalue="11"/>
      <field name="tcp.flags.ecn" showname=".... .0.. .... = ECN-Echo: Not set" size="1" pos="67" show="0" value="0" unmaskedvalue="11"/>
      <field name="tcp.flags.urg" showname=".... ..0. .... = Urgent: Not set" size="1" pos="67" show="0" value="0" unmaskedvalue="11"/>
      <field name="tcp.flags.ack" showname=".... ...1 .... = Acknowledgment: Set" size="1" pos="67" show="1" value="1" unmaskedvalue="11"/>
      <field name="tcp.flags.push" showname=".... .... 0... = Push: Not set" size="1" pos="67" show="0" value="0" unmaskedvalue="11"/>
      <field name="tcp.flags.reset" showname=".... .... .0.. = Reset: Not set" size="1" pos="67" show="0" value="0" unmaskedvalue="11"/>
      <field name="tcp.flags.syn" showname=".... .... ..0. = Syn: Not set" size="1" pos="67" show="0" value="0" unmaskedvalue="11"/>
      <field name="tcp.flags.fin" showname=".... .... ...1 = Fin: Set" size="1" pos="67" show="1" value="1" unmaskedvalue="11">
        <field name="_ws.expert" showname="Expert Info (Chat/Sequence): Connection finish (FIN)" size="0" pos="67">
          <field name="tcp.connection.fin" showname="Connection finish (FIN)" size="0" pos="0" show="" value=""/>
          <field name="_ws.expert.message" showname="Message: Connection finish (FIN)" hide="yes" size="0" pos="0" show="Connection finish (FIN)"/>
          <field name="_ws.expert.severity" showname="Severity level: Chat" size="0" pos="0" show="2097152"/>
          <field name="_ws.expert.group" showname="Group: Sequence" size="0" pos="0" show="33554432"/>
        </field>
      </field>
      <field name="tcp.flags.str" showname="TCP Flags: \xc2\xb7\xc2\xb7\xc2\xb7\xc2\xb7\xc2\xb7\xc2\xb7\xc2\xb7A\xc2\xb7\xc2\xb7\xc2\xb7F" size="2" pos="66" show="\xc2\xb7\xc2\xb7\xc2\xb7\xc2\xb7\xc2\xb7\xc2\xb7\xc2\xb7A\xc2\xb7\xc2\xb7\xc2\xb7F" value="5011"/>
    </field>
    <field name="tcp.window_size_value" showname="Window size value: 52221" size="2" pos="68" show="52221" value="cbfd"/>
    <field name="tcp.window_size" showname="Calculated window size: 52221" size="2" pos="68" show="52221" value="cbfd"/>
    <field name="tcp.window_size_scalefactor" showname="Window size scaling factor: -1 (unknown)" size="2" pos="68" show="-1" value="cbfd"/>
    <field name="tcp.checksum" showname="Checksum: 0x20eb [unverified]" size="2" pos="70" show="0x000020eb" value="20eb"/>
    <field name="tcp.checksum.status" showname="Checksum Status: Unverified" size="0" pos="70" show="2"/>
    <field name="tcp.urgent_pointer" showname="Urgent pointer: 0" size="2" pos="72" show="0" value="0000"/>
    <field name="" show="Timestamps" size="0" pos="54">
      <field name="tcp.time_relative" showname="Time since first frame in this TCP stream: 0.000000000 seconds" size="0" pos="54" show="0.000000000"/>
      <field name="tcp.time_delta" showname="Time since previous frame in this TCP stream: 0.000000000 seconds" size="0" pos="54" show="0.000000000"/>
    </field>
  </proto>
</packet>


<packet>
  <proto name="geninfo" pos="0" showname="General information" size="74">
    <field name="num" pos="0" show="8" showname="Number" value="8" size="74"/>
    <field name="len" pos="0" show="74" showname="Frame Length" value="4a" size="74"/>
    <field name="caplen" pos="0" show="74" showname="Captured Length" value="4a" size="74"/>
    <field name="timestamp" pos="0" show="Dec 11, 2018 21:06:41.947553000 Mountain Standard Time" showname="Captured Time" value="1544587601.947553000" size="74"/>
  </proto>
  <proto name="frame" showname="Frame 8: 74 bytes on wire (592 bits), 74 bytes captured (592 bits)" size="74" pos="0">
    <field name="frame.encap_type" showname="Encapsulation type: Ethernet (1)" size="0" pos="0" show="1"/>
    <field name="frame.time" showname="Arrival Time: Dec 11, 2018 21:06:41.947553000 Mountain Standard Time" size="0" pos="0" show="Dec 11, 2018 21:06:41.947553000 Mountain Standard Time"/>
    <field name="frame.offset_shift" showname="Time shift for this packet: 0.000000000 seconds" size="0" pos="0" show="0.000000000"/>
    <field name="frame.time_epoch" showname="Epoch Time: 1544587601.947553000 seconds" size="0" pos="0" show="1544587601.947553000"/>
    <field name="frame.time_delta" showname="Time delta from previous captured frame: 0.000039000 seconds" size="0" pos="0" show="0.000039000"/>
    <field name="frame.time_delta_displayed" showname="Time delta from previous displayed frame: 0.000039000 seconds" size="0" pos="0" show="0.000039000"/>
    <field name="frame.time_relative" showname="Time since reference or first frame: 0.488353000 seconds" size="0" pos="0" show="0.488353000"/>
    <field name="frame.number" showname="Frame Number: 8" size="0" pos="0" show="8"/>
    <field name="frame.len" showname="Frame Length: 74 bytes (592 bits)" size="0" pos="0" show="74"/>
    <field name="frame.cap_len" showname="Capture Length: 74 bytes (592 bits)" size="0" pos="0" show="74"/>
    <field name="frame.marked" showname="Frame is marked: False" size="0" pos="0" show="0"/>
    <field name="frame.ignored" showname="Frame is ignored: False" size="0" pos="0" show="0"/>
    <field name="frame.protocols" showname="Protocols in frame: eth:ethertype:ipv6:tcp" size="0" pos="0" show="eth:ethertype:ipv6:tcp"/>
  </proto>
  <proto name="eth" showname="Ethernet II, Src: LiteonTe_4e:2e:21 (18:cf:5e:4e:2e:21), Dst: HuaweiTe_30:02:68 (7c:b1:5d:30:02:68)" size="14" pos="0">
    <field name="eth.dst" showname="Destination: HuaweiTe_30:02:68 (7c:b1:5d:30:02:68)" size="6" pos="0" show="7c:b1:5d:30:02:68" value="7cb15d300268">
      <field name="eth.dst_resolved" showname="Destination (resolved): HuaweiTe_30:02:68" hide="yes" size="6" pos="0" show="HuaweiTe_30:02:68" value="7cb15d300268"/>
      <field name="eth.addr" showname="Address: HuaweiTe_30:02:68 (7c:b1:5d:30:02:68)" size="6" pos="0" show="7c:b1:5d:30:02:68" value="7cb15d300268"/>
      <field name="eth.addr_resolved" showname="Address (resolved): HuaweiTe_30:02:68" hide="yes" size="6" pos="0" show="HuaweiTe_30:02:68" value="7cb15d300268"/>
      <field name="eth.lg" showname=".... ..0. .... .... .... .... = LG bit: Globally unique address (factory default)" size="3" pos="0" show="0" value="0" unmaskedvalue="7cb15d"/>
      <field name="eth.ig" showname=".... ...0 .... .... .... .... = IG bit: Individual address (unicast)" size="3" pos="0" show="0" value="0" unmaskedvalue="7cb15d"/>
    </field>
    <field name="eth.src" showname="Source: LiteonTe_4e:2e:21 (18:cf:5e:4e:2e:21)" size="6" pos="6" show="18:cf:5e:4e:2e:21" value="18cf5e4e2e21">
      <field name="eth.src_resolved" showname="Source (resolved): LiteonTe_4e:2e:21" hide="yes" size="6" pos="6" show="LiteonTe_4e:2e:21" value="18cf5e4e2e21"/>
      <field name="eth.addr" showname="Address: LiteonTe_4e:2e:21 (18:cf:5e:4e:2e:21)" size="6" pos="6" show="18:cf:5e:4e:2e:21" value="18cf5e4e2e21"/>
      <field name="eth.addr_resolved" showname="Address (resolved): LiteonTe_4e:2e:21" hide="yes" size="6" pos="6" show="LiteonTe_4e:2e:21" value="18cf5e4e2e21"/>
      <field name="eth.lg" showname=".... ..0. .... .... .... .... = LG bit: Globally unique address (factory default)" size="3" pos="6" show="0" value="0" unmaskedvalue="18cf5e"/>
      <field name="eth.ig" showname=".... ...0 .... .... .... .... = IG bit: Individual address (unicast)" size="3" pos="6" show="0" value="0" unmaskedvalue="18cf5e"/>
    </field>
    <field name="eth.type" showname="Type: IPv6 (0x86dd)" size="2" pos="12" show="0x000086dd" value="86dd"/>
  </proto>
  <proto name="ipv6" showname="Internet Protocol Version 6, Src: 2806:1016:d:8ca7:e1f3:d:61b3:914b, Dst: 2806:1010:cfff:2::10" size="40" pos="14">
    <field name="ipv6.version" showname="0110 .... = Version: 6" size="1" pos="14" show="6" value="6" unmaskedvalue="60"/>
    <field name="ip.version" showname="0110 .... = Version: 6 [This field makes the filter match on &quot;ip.version == 6&quot; possible]" hide="yes" size="1" pos="14" show="6" value="6" unmaskedvalue="60"/>
    <field name="ipv6.tclass" showname=".... 0000 0000 .... .... .... .... .... = Traffic Class: 0x00 (DSCP: CS0, ECN: Not-ECT)" size="4" pos="14" show="0x00000000" value="0" unmaskedvalue="6007c201">
      <field name="ipv6.tclass.dscp" showname=".... 0000 00.. .... .... .... .... .... = Differentiated Services Codepoint: Default (0)" size="4" pos="14" show="0" value="0" unmaskedvalue="6007c201"/>
      <field name="ipv6.tclass.ecn" showname=".... .... ..00 .... .... .... .... .... = Explicit Congestion Notification: Not ECN-Capable Transport (0)" size="4" pos="14" show="0" value="0" unmaskedvalue="6007c201"/>
    </field>
    <field name="ipv6.flow" showname=".... .... .... 0111 1100 0010 0000 0001 = Flow Label: 0x7c201" size="4" pos="14" show="0x0007c201" value="7C201" unmaskedvalue="6007c201"/>
    <field name="ipv6.plen" showname="Payload Length: 20" size="2" pos="18" show="20" value="0014"/>
    <field name="ipv6.nxt" showname="Next Header: TCP (6)" size="1" pos="20" show="6" value="06"/>
    <field name="ipv6.hlim" showname="Hop Limit: 64" size="1" pos="21" show="64" value="40"/>
    <field name="ipv6.src" showname="Source: 2806:1016:d:8ca7:e1f3:d:61b3:914b" size="16" pos="22" show="2806:1016:d:8ca7:e1f3:d:61b3:914b" value="28061016000d8ca7e1f3000d61b3914b"/>
    <field name="ipv6.addr" showname="Source or Destination Address: 2806:1016:d:8ca7:e1f3:d:61b3:914b" hide="yes" size="16" pos="22" show="2806:1016:d:8ca7:e1f3:d:61b3:914b" value="28061016000d8ca7e1f3000d61b3914b"/>
    <field name="ipv6.src_host" showname="Source Host: 2806:1016:d:8ca7:e1f3:d:61b3:914b" hide="yes" size="16" pos="22" show="2806:1016:d:8ca7:e1f3:d:61b3:914b" value="28061016000d8ca7e1f3000d61b3914b"/>
    <field name="ipv6.host" showname="Source or Destination Host: 2806:1016:d:8ca7:e1f3:d:61b3:914b" hide="yes" size="16" pos="22" show="2806:1016:d:8ca7:e1f3:d:61b3:914b" value="28061016000d8ca7e1f3000d61b3914b"/>
    <field name="ipv6.dst" showname="Destination: 2806:1010:cfff:2::10" size="16" pos="38" show="2806:1010:cfff:2::10" value="28061010cfff00020000000000000010"/>
    <field name="ipv6.addr" showname="Source or Destination Address: 2806:1010:cfff:2::10" hide="yes" size="16" pos="38" show="2806:1010:cfff:2::10" value="28061010cfff00020000000000000010"/>
    <field name="ipv6.dst_host" showname="Destination Host: 2806:1010:cfff:2::10" hide="yes" size="16" pos="38" show="2806:1010:cfff:2::10" value="28061010cfff00020000000000000010"/>
    <field name="ipv6.host" showname="Source or Destination Host: 2806:1010:cfff:2::10" hide="yes" size="16" pos="38" show="2806:1010:cfff:2::10" value="28061010cfff00020000000000000010"/>
  </proto>
  <proto name="tcp" showname="Transmission Control Protocol, Src Port: 52060, Dst Port: 443, Seq: 1, Ack: 2, Len: 0" size="20" pos="54">
    <field name="tcp.srcport" showname="Source Port: 52060" size="2" pos="54" show="52060" value="cb5c"/>
    <field name="tcp.dstport" showname="Destination Port: 443" size="2" pos="56" show="443" value="01bb"/>
    <field name="tcp.port" showname="Source or Destination Port: 52060" hide="yes" size="2" pos="54" show="52060" value="cb5c"/>
    <field name="tcp.port" showname="Source or Destination Port: 443" hide="yes" size="2" pos="56" show="443" value="01bb"/>
    <field name="tcp.stream" showname="Stream index: 1" size="0" pos="54" show="1"/>
    <field name="tcp.len" showname="TCP Segment Len: 0" size="1" pos="66" show="0" value="50"/>
    <field name="tcp.seq" showname="Sequence number: 1    (relative sequence number)" size="4" pos="58" show="1" value="7eb227b8"/>
    <field name="tcp.nxtseq" showname="Next sequence number: 1    (relative sequence number)" size="0" pos="54" show="1"/>
    <field name="tcp.ack" showname="Acknowledgment number: 2    (relative ack number)" size="4" pos="62" show="2" value="ba39f337"/>
    <field name="tcp.hdr_len" showname="0101 .... = Header Length: 20 bytes (5)" size="1" pos="66" show="20" value="50"/>
    <field name="tcp.flags" showname="Flags: 0x010 (ACK)" size="2" pos="66" show="0x00000010" value="10" unmaskedvalue="5010">
      <field name="tcp.flags.res" showname="000. .... .... = Reserved: Not set" size="1" pos="66" show="0" value="0" unmaskedvalue="50"/>
      <field name="tcp.flags.ns" showname="...0 .... .... = Nonce: Not set" size="1" pos="66" show="0" value="0" unmaskedvalue="50"/>
      <field name="tcp.flags.cwr" showname=".... 0... .... = Congestion Window Reduced (CWR): Not set" size="1" pos="67" show="0" value="0" unmaskedvalue="10"/>
      <field name="tcp.flags.ecn" showname=".... .0.. .... = ECN-Echo: Not set" size="1" pos="67" show="0" value="0" unmaskedvalue="10"/>
      <field name="tcp.flags.urg" showname=".... ..0. .... = Urgent: Not set" size="1" pos="67" show="0" value="0" unmaskedvalue="10"/>
      <field name="tcp.flags.ack" showname=".... ...1 .... = Acknowledgment: Set" size="1" pos="67" show="1" value="1" unmaskedvalue="10"/>
      <field name="tcp.flags.push" showname=".... .... 0... = Push: Not set" size="1" pos="67" show="0" value="0" unmaskedvalue="10"/>
      <field name="tcp.flags.reset" showname=".... .... .0.. = Reset: Not set" size="1" pos="67" show="0" value="0" unmaskedvalue="10"/>
      <field name="tcp.flags.syn" showname=".... .... ..0. = Syn: Not set" size="1" pos="67" show="0" value="0" unmaskedvalue="10"/>
      <field name="tcp.flags.fin" showname=".... .... ...0 = Fin: Not set" size="1" pos="67" show="0" value="0" unmaskedvalue="10"/>
      <field name="tcp.flags.str" showname="TCP Flags: \xc2\xb7\xc2\xb7\xc2\xb7\xc2\xb7\xc2\xb7\xc2\xb7\xc2\xb7A\xc2\xb7\xc2\xb7\xc2\xb7\xc2\xb7" size="2" pos="66" show="\xc2\xb7\xc2\xb7\xc2\xb7\xc2\xb7\xc2\xb7\xc2\xb7\xc2\xb7A\xc2\xb7\xc2\xb7\xc2\xb7\xc2\xb7" value="5010"/>
    </field>
    <field name="tcp.window_size_value" showname="Window size value: 63655" size="2" pos="68" show="63655" value="f8a7"/>
    <field name="tcp.window_size" showname="Calculated window size: 63655" size="2" pos="68" show="63655" value="f8a7"/>
    <field name="tcp.window_size_scalefactor" showname="Window size scaling factor: -1 (unknown)" size="2" pos="68" show="-1" value="f8a7"/>
    <field name="tcp.checksum" showname="Checksum: 0xf440 [unverified]" size="2" pos="70" show="0x0000f440" value="f440"/>
    <field name="tcp.checksum.status" showname="Checksum Status: Unverified" size="0" pos="70" show="2"/>
    <field name="tcp.urgent_pointer" showname="Urgent pointer: 0" size="2" pos="72" show="0" value="0000"/>
    <field name="tcp.analysis" showname="SEQ/ACK analysis" size="0" pos="54" show="" value="">
      <field name="tcp.analysis.acks_frame" showname="This is an ACK to the segment in frame: 7" size="0" pos="54" show="7"/>
      <field name="tcp.analysis.ack_rtt" showname="The RTT to ACK the segment was: 0.000039000 seconds" size="0" pos="54" show="0.000039000"/>
    </field>
    <field name="" show="Timestamps" size="0" pos="54">
      <field name="tcp.time_relative" showname="Time since first frame in this TCP stream: 0.000039000 seconds" size="0" pos="54" show="0.000039000"/>
      <field name="tcp.time_delta" showname="Time since previous frame in this TCP stream: 0.000039000 seconds" size="0" pos="54" show="0.000039000"/>
    </field>
  </proto>
</packet>


<packet>
  <proto name="geninfo" pos="0" showname="General information" size="158">
    <field name="num" pos="0" show="9" showname="Number" value="9" size="158"/>
    <field name="len" pos="0" show="158" showname="Frame Length" value="9e" size="158"/>
    <field name="caplen" pos="0" show="158" showname="Captured Length" value="9e" size="158"/>
    <field name="timestamp" pos="0" show="Dec 11, 2018 21:06:42.276176000 Mountain Standard Time" showname="Captured Time" value="1544587602.276176000" size="158"/>
  </proto>
  <proto name="frame" showname="Frame 9: 158 bytes on wire (1264 bits), 158 bytes captured (1264 bits)" size="158" pos="0">
    <field name="frame.encap_type" showname="Encapsulation type: Ethernet (1)" size="0" pos="0" show="1"/>
    <field name="frame.time" showname="Arrival Time: Dec 11, 2018 21:06:42.276176000 Mountain Standard Time" size="0" pos="0" show="Dec 11, 2018 21:06:42.276176000 Mountain Standard Time"/>
    <field name="frame.offset_shift" showname="Time shift for this packet: 0.000000000 seconds" size="0" pos="0" show="0.000000000"/>
    <field name="frame.time_epoch" showname="Epoch Time: 1544587602.276176000 seconds" size="0" pos="0" show="1544587602.276176000"/>
    <field name="frame.time_delta" showname="Time delta from previous captured frame: 0.328623000 seconds" size="0" pos="0" show="0.328623000"/>
    <field name="frame.time_delta_displayed" showname="Time delta from previous displayed frame: 0.328623000 seconds" size="0" pos="0" show="0.328623000"/>
    <field name="frame.time_relative" showname="Time since reference or first frame: 0.816976000 seconds" size="0" pos="0" show="0.816976000"/>
    <field name="frame.number" showname="Frame Number: 9" size="0" pos="0" show="9"/>
    <field name="frame.len" showname="Frame Length: 158 bytes (1264 bits)" size="0" pos="0" show="158"/>
    <field name="frame.cap_len" showname="Capture Length: 158 bytes (1264 bits)" size="0" pos="0" show="158"/>
    <field name="frame.marked" showname="Frame is marked: False" size="0" pos="0" show="0"/>
    <field name="frame.ignored" showname="Frame is ignored: False" size="0" pos="0" show="0"/>
    <field name="frame.protocols" showname="Protocols in frame: eth:ethertype:ip:tcp:ssl" size="0" pos="0" show="eth:ethertype:ip:tcp:ssl"/>
  </proto>
  <proto name="eth" showname="Ethernet II, Src: HuaweiTe_30:02:68 (7c:b1:5d:30:02:68), Dst: LiteonTe_4e:2e:21 (18:cf:5e:4e:2e:21)" size="14" pos="0">
    <field name="eth.dst" showname="Destination: LiteonTe_4e:2e:21 (18:cf:5e:4e:2e:21)" size="6" pos="0" show="18:cf:5e:4e:2e:21" value="18cf5e4e2e21">
      <field name="eth.dst_resolved" showname="Destination (resolved): LiteonTe_4e:2e:21" hide="yes" size="6" pos="0" show="LiteonTe_4e:2e:21" value="18cf5e4e2e21"/>
      <field name="eth.addr" showname="Address: LiteonTe_4e:2e:21 (18:cf:5e:4e:2e:21)" size="6" pos="0" show="18:cf:5e:4e:2e:21" value="18cf5e4e2e21"/>
      <field name="eth.addr_resolved" showname="Address (resolved): LiteonTe_4e:2e:21" hide="yes" size="6" pos="0" show="LiteonTe_4e:2e:21" value="18cf5e4e2e21"/>
      <field name="eth.lg" showname=".... ..0. .... .... .... .... = LG bit: Globally unique address (factory default)" size="3" pos="0" show="0" value="0" unmaskedvalue="18cf5e"/>
      <field name="eth.ig" showname=".... ...0 .... .... .... .... = IG bit: Individual address (unicast)" size="3" pos="0" show="0" value="0" unmaskedvalue="18cf5e"/>
    </field>
    <field name="eth.src" showname="Source: HuaweiTe_30:02:68 (7c:b1:5d:30:02:68)" size="6" pos="6" show="7c:b1:5d:30:02:68" value="7cb15d300268">
      <field name="eth.src_resolved" showname="Source (resolved): HuaweiTe_30:02:68" hide="yes" size="6" pos="6" show="HuaweiTe_30:02:68" value="7cb15d300268"/>
      <field name="eth.addr" showname="Address: HuaweiTe_30:02:68 (7c:b1:5d:30:02:68)" size="6" pos="6" show="7c:b1:5d:30:02:68" value="7cb15d300268"/>
      <field name="eth.addr_resolved" showname="Address (resolved): HuaweiTe_30:02:68" hide="yes" size="6" pos="6" show="HuaweiTe_30:02:68" value="7cb15d300268"/>
      <field name="eth.lg" showname=".... ..0. .... .... .... .... = LG bit: Globally unique address (factory default)" size="3" pos="6" show="0" value="0" unmaskedvalue="7cb15d"/>
      <field name="eth.ig" showname=".... ...0 .... .... .... .... = IG bit: Individual address (unicast)" size="3" pos="6" show="0" value="0" unmaskedvalue="7cb15d"/>
    </field>
    <field name="eth.type" showname="Type: IPv4 (0x0800)" size="2" pos="12" show="0x00000800" value="0800"/>
  </proto>
  <proto name="ip" showname="Internet Protocol Version 4, Src: 205.196.6.67, Dst: 192.168.1.66" size="20" pos="14">
    <field name="ip.version" showname="0100 .... = Version: 4" size="1" pos="14" show="4" value="4" unmaskedvalue="45"/>
    <field name="ip.hdr_len" showname=".... 0101 = Header Length: 20 bytes (5)" size="1" pos="14" show="20" value="45"/>
    <field name="ip.dsfield" showname="Differentiated Services Field: 0x00 (DSCP: CS0, ECN: Not-ECT)" size="1" pos="15" show="0x00000000" value="00">
      <field name="ip.dsfield.dscp" showname="0000 00.. = Differentiated Services Codepoint: Default (0)" size="1" pos="15" show="0" value="0" unmaskedvalue="00"/>
      <field name="ip.dsfield.ecn" showname=".... ..00 = Explicit Congestion Notification: Not ECN-Capable Transport (0)" size="1" pos="15" show="0" value="0" unmaskedvalue="00"/>
    </field>
    <field name="ip.len" showname="Total Length: 144" size="2" pos="16" show="144" value="0090"/>
    <field name="ip.id" showname="Identification: 0x3ec9 (16073)" size="2" pos="18" show="0x00003ec9" value="3ec9"/>
    <field name="ip.flags" showname="Flags: 0x4000, Don&#x27;t fragment" size="2" pos="20" show="0x00004000" value="4000">
      <field name="ip.flags.rb" showname="0... .... .... .... = Reserved bit: Not set" size="2" pos="20" show="0" value="0" unmaskedvalue="4000"/>
      <field name="ip.flags.df" showname=".1.. .... .... .... = Don&#x27;t fragment: Set" size="2" pos="20" show="1" value="1" unmaskedvalue="4000"/>
      <field name="ip.flags.mf" showname="..0. .... .... .... = More fragments: Not set" size="2" pos="20" show="0" value="0" unmaskedvalue="4000"/>
      <field name="ip.frag_offset" showname="...0 0000 0000 0000 = Fragment offset: 0" size="2" pos="20" show="0" value="0" unmaskedvalue="4000"/>
    </field>
    <field name="ip.ttl" showname="Time to live: 121" size="1" pos="22" show="121" value="79"/>
    <field name="ip.proto" showname="Protocol: TCP (6)" size="1" pos="23" show="6" value="06"/>
    <field name="ip.checksum" showname="Header checksum: 0x2cad [validation disabled]" size="2" pos="24" show="0x00002cad" value="2cad"/>
    <field name="ip.checksum.status" showname="Header checksum status: Unverified" size="0" pos="24" show="2"/>
    <field name="ip.src" showname="Source: 205.196.6.67" size="4" pos="26" show="205.196.6.67" value="cdc40643"/>
    <field name="ip.addr" showname="Source or Destination Address: 205.196.6.67" hide="yes" size="4" pos="26" show="205.196.6.67" value="cdc40643"/>
    <field name="ip.src_host" showname="Source Host: 205.196.6.67" hide="yes" size="4" pos="26" show="205.196.6.67" value="cdc40643"/>
    <field name="ip.host" showname="Source or Destination Host: 205.196.6.67" hide="yes" size="4" pos="26" show="205.196.6.67" value="cdc40643"/>
    <field name="ip.dst" showname="Destination: 192.168.1.66" size="4" pos="30" show="192.168.1.66" value="c0a80142"/>
    <field name="ip.addr" showname="Source or Destination Address: 192.168.1.66" hide="yes" size="4" pos="30" show="192.168.1.66" value="c0a80142"/>
    <field name="ip.dst_host" showname="Destination Host: 192.168.1.66" hide="yes" size="4" pos="30" show="192.168.1.66" value="c0a80142"/>
    <field name="ip.host" showname="Source or Destination Host: 192.168.1.66" hide="yes" size="4" pos="30" show="192.168.1.66" value="c0a80142"/>
  </proto>
  <proto name="tcp" showname="Transmission Control Protocol, Src Port: 27020, Dst Port: 50128, Seq: 1, Ack: 1, Len: 104" size="20" pos="34">
    <field name="tcp.srcport" showname="Source Port: 27020" size="2" pos="34" show="27020" value="698c"/>
    <field name="tcp.dstport" showname="Destination Port: 50128" size="2" pos="36" show="50128" value="c3d0"/>
    <field name="tcp.port" showname="Source or Destination Port: 27020" hide="yes" size="2" pos="34" show="27020" value="698c"/>
    <field name="tcp.port" showname="Source or Destination Port: 50128" hide="yes" size="2" pos="36" show="50128" value="c3d0"/>
    <field name="tcp.stream" showname="Stream index: 2" size="0" pos="34" show="2"/>
    <field name="tcp.len" showname="TCP Segment Len: 104" size="1" pos="46" show="104" value="50"/>
    <field name="tcp.seq" showname="Sequence number: 1    (relative sequence number)" size="4" pos="38" show="1" value="bcbae7f8"/>
    <field name="tcp.nxtseq" showname="Next sequence number: 105    (relative sequence number)" size="0" pos="34" show="105"/>
    <field name="tcp.ack" showname="Acknowledgment number: 1    (relative ack number)" size="4" pos="42" show="1" value="d8f5b4ee"/>
    <field name="tcp.hdr_len" showname="0101 .... = Header Length: 20 bytes (5)" size="1" pos="46" show="20" value="50"/>
    <field name="tcp.flags" showname="Flags: 0x018 (PSH, ACK)" size="2" pos="46" show="0x00000018" value="18" unmaskedvalue="5018">
      <field name="tcp.flags.res" showname="000. .... .... = Reserved: Not set" size="1" pos="46" show="0" value="0" unmaskedvalue="50"/>
      <field name="tcp.flags.ns" showname="...0 .... .... = Nonce: Not set" size="1" pos="46" show="0" value="0" unmaskedvalue="50"/>
      <field name="tcp.flags.cwr" showname=".... 0... .... = Congestion Window Reduced (CWR): Not set" size="1" pos="47" show="0" value="0" unmaskedvalue="18"/>
      <field name="tcp.flags.ecn" showname=".... .0.. .... = ECN-Echo: Not set" size="1" pos="47" show="0" value="0" unmaskedvalue="18"/>
      <field name="tcp.flags.urg" showname=".... ..0. .... = Urgent: Not set" size="1" pos="47" show="0" value="0" unmaskedvalue="18"/>
      <field name="tcp.flags.ack" showname=".... ...1 .... = Acknowledgment: Set" size="1" pos="47" show="1" value="1" unmaskedvalue="18"/>
      <field name="tcp.flags.push" showname=".... .... 1... = Push: Set" size="1" pos="47" show="1" value="1" unmaskedvalue="18"/>
      <field name="tcp.flags.reset" showname=".... .... .0.. = Reset: Not set" size="1" pos="47" show="0" value="0" unmaskedvalue="18"/>
      <field name="tcp.flags.syn" showname=".... .... ..0. = Syn: Not set" size="1" pos="47" show="0" value="0" unmaskedvalue="18"/>
      <field name="tcp.flags.fin" showname=".... .... ...0 = Fin: Not set" size="1" pos="47" show="0" value="0" unmaskedvalue="18"/>
      <field name="tcp.flags.str" showname="TCP Flags: \xc2\xb7\xc2\xb7\xc2\xb7\xc2\xb7\xc2\xb7\xc2\xb7\xc2\xb7AP\xc2\xb7\xc2\xb7\xc2\xb7" size="2" pos="46" show="\xc2\xb7\xc2\xb7\xc2\xb7\xc2\xb7\xc2\xb7\xc2\xb7\xc2\xb7AP\xc2\xb7\xc2\xb7\xc2\xb7" value="5018"/>
    </field>
    <field name="tcp.window_size_value" showname="Window size value: 64952" size="2" pos="48" show="64952" value="fdb8"/>
    <field name="tcp.window_size" showname="Calculated window size: 64952" size="2" pos="48" show="64952" value="fdb8"/>
    <field name="tcp.window_size_scalefactor" showname="Window size scaling factor: -1 (unknown)" size="2" pos="48" show="-1" value="fdb8"/>
    <field name="tcp.checksum" showname="Checksum: 0xb47c [unverified]" size="2" pos="50" show="0x0000b47c" value="b47c"/>
    <field name="tcp.checksum.status" showname="Checksum Status: Unverified" size="0" pos="50" show="2"/>
    <field name="tcp.urgent_pointer" showname="Urgent pointer: 0" size="2" pos="52" show="0" value="0000"/>
    <field name="tcp.analysis" showname="SEQ/ACK analysis" size="0" pos="34" show="" value="">
      <field name="tcp.analysis.bytes_in_flight" showname="Bytes in flight: 104" size="0" pos="34" show="104"/>
      <field name="tcp.analysis.push_bytes_sent" showname="Bytes sent since last PSH flag: 104" size="0" pos="34" show="104"/>
    </field>
    <field name="" show="Timestamps" size="0" pos="34">
      <field name="tcp.time_relative" showname="Time since first frame in this TCP stream: 0.000000000 seconds" size="0" pos="34" show="0.000000000"/>
      <field name="tcp.time_delta" showname="Time since previous frame in this TCP stream: 0.000000000 seconds" size="0" pos="34" show="0.000000000"/>
    </field>
    <field name="tcp.payload" showname="TCP payload (104 bytes)" size="104" pos="54" show="17:03:03:00:63:c8:4f:7d:fa:c6:92:35:d8:62:0b:59:66:bf:5f:9a:3c:19:9f:12:a5:35:8b:34:0a:9a:f5:8d:31:83:4e:3e:cb:a7:84:04:91:0e:ff:68:ef:4d:5f:30:3b:7d:5f:be:c8:e4:7c:f9:98:42:3b:7f:2b:3c:e5:2a:8c:30:33:bb:29:da:47:2e:bf:f8:49:b2:09:6e:39:2e:da:ac:a6:db:d3:e0:af:9a:d5:11:7f:f8:a4:17:7e:4b:19:26:ca:7a:66:42:3f:f8" value="1703030063c84f7dfac69235d8620b5966bf5f9a3c199f12a5358b340a9af58d31834e3ecba78404910eff68ef4d5f303b7d5fbec8e47cf998423b7f2b3ce52a8c3033bb29da472ebff849b2096e392edaaca6dbd3e0af9ad5117ff8a4177e4b1926ca7a66423ff8"/>
  </proto>
  <proto name="ssl" showname="Secure Sockets Layer" size="104" pos="54">
    <field name="ssl.record" showname="TLSv1.2 Record Layer: Application Data Protocol: Application Data" size="104" pos="54" show="" value="">
      <field name="ssl.record.content_type" showname="Content Type: Application Data (23)" size="1" pos="54" show="23" value="17"/>
      <field name="ssl.record.version" showname="Version: TLS 1.2 (0x0303)" size="2" pos="55" show="0x00000303" value="0303"/>
      <field name="ssl.record.length" showname="Length: 99" size="2" pos="57" show="99" value="0063"/>
      <field name="ssl.app_data" showname="Encrypted Application Data: c84f7dfac69235d8620b5966bf5f9a3c199f12a5358b340a..." size="99" pos="59" show="c8:4f:7d:fa:c6:92:35:d8:62:0b:59:66:bf:5f:9a:3c:19:9f:12:a5:35:8b:34:0a:9a:f5:8d:31:83:4e:3e:cb:a7:84:04:91:0e:ff:68:ef:4d:5f:30:3b:7d:5f:be:c8:e4:7c:f9:98:42:3b:7f:2b:3c:e5:2a:8c:30:33:bb:29:da:47:2e:bf:f8:49:b2:09:6e:39:2e:da:ac:a6:db:d3:e0:af:9a:d5:11:7f:f8:a4:17:7e:4b:19:26:ca:7a:66:42:3f:f8" value="c84f7dfac69235d8620b5966bf5f9a3c199f12a5358b340a9af58d31834e3ecba78404910eff68ef4d5f303b7d5fbec8e47cf998423b7f2b3ce52a8c3033bb29da472ebff849b2096e392edaaca6dbd3e0af9ad5117ff8a4177e4b1926ca7a66423ff8"/>
    </field>
  </proto>
</packet>


<packet>
  <proto name="geninfo" pos="0" showname="General information" size="54">
    <field name="num" pos="0" show="10" showname="Number" value="a" size="54"/>
    <field name="len" pos="0" show="54" showname="Frame Length" value="36" size="54"/>
    <field name="caplen" pos="0" show="54" showname="Captured Length" value="36" size="54"/>
    <field name="timestamp" pos="0" show="Dec 11, 2018 21:06:42.316765000 Mountain Standard Time" showname="Captured Time" value="1544587602.316765000" size="54"/>
  </proto>
  <proto name="frame" showname="Frame 10: 54 bytes on wire (432 bits), 54 bytes captured (432 bits)" size="54" pos="0">
    <field name="frame.encap_type" showname="Encapsulation type: Ethernet (1)" size="0" pos="0" show="1"/>
    <field name="frame.time" showname="Arrival Time: Dec 11, 2018 21:06:42.316765000 Mountain Standard Time" size="0" pos="0" show="Dec 11, 2018 21:06:42.316765000 Mountain Standard Time"/>
    <field name="frame.offset_shift" showname="Time shift for this packet: 0.000000000 seconds" size="0" pos="0" show="0.000000000"/>
    <field name="frame.time_epoch" showname="Epoch Time: 1544587602.316765000 seconds" size="0" pos="0" show="1544587602.316765000"/>
    <field name="frame.time_delta" showname="Time delta from previous captured frame: 0.040589000 seconds" size="0" pos="0" show="0.040589000"/>
    <field name="frame.time_delta_displayed" showname="Time delta from previous displayed frame: 0.040589000 seconds" size="0" pos="0" show="0.040589000"/>
    <field name="frame.time_relative" showname="Time since reference or first frame: 0.857565000 seconds" size="0" pos="0" show="0.857565000"/>
    <field name="frame.number" showname="Frame Number: 10" size="0" pos="0" show="10"/>
    <field name="frame.len" showname="Frame Length: 54 bytes (432 bits)" size="0" pos="0" show="54"/>
    <field name="frame.cap_len" showname="Capture Length: 54 bytes (432 bits)" size="0" pos="0" show="54"/>
    <field name="frame.marked" showname="Frame is marked: False" size="0" pos="0" show="0"/>
    <field name="frame.ignored" showname="Frame is ignored: False" size="0" pos="0" show="0"/>
    <field name="frame.protocols" showname="Protocols in frame: eth:ethertype:ip:tcp" size="0" pos="0" show="eth:ethertype:ip:tcp"/>
  </proto>
  <proto name="eth" showname="Ethernet II, Src: LiteonTe_4e:2e:21 (18:cf:5e:4e:2e:21), Dst: HuaweiTe_30:02:68 (7c:b1:5d:30:02:68)" size="14" pos="0">
    <field name="eth.dst" showname="Destination: HuaweiTe_30:02:68 (7c:b1:5d:30:02:68)" size="6" pos="0" show="7c:b1:5d:30:02:68" value="7cb15d300268">
      <field name="eth.dst_resolved" showname="Destination (resolved): HuaweiTe_30:02:68" hide="yes" size="6" pos="0" show="HuaweiTe_30:02:68" value="7cb15d300268"/>
      <field name="eth.addr" showname="Address: HuaweiTe_30:02:68 (7c:b1:5d:30:02:68)" size="6" pos="0" show="7c:b1:5d:30:02:68" value="7cb15d300268"/>
      <field name="eth.addr_resolved" showname="Address (resolved): HuaweiTe_30:02:68" hide="yes" size="6" pos="0" show="HuaweiTe_30:02:68" value="7cb15d300268"/>
      <field name="eth.lg" showname=".... ..0. .... .... .... .... = LG bit: Globally unique address (factory default)" size="3" pos="0" show="0" value="0" unmaskedvalue="7cb15d"/>
      <field name="eth.ig" showname=".... ...0 .... .... .... .... = IG bit: Individual address (unicast)" size="3" pos="0" show="0" value="0" unmaskedvalue="7cb15d"/>
    </field>
    <field name="eth.src" showname="Source: LiteonTe_4e:2e:21 (18:cf:5e:4e:2e:21)" size="6" pos="6" show="18:cf:5e:4e:2e:21" value="18cf5e4e2e21">
      <field name="eth.src_resolved" showname="Source (resolved): LiteonTe_4e:2e:21" hide="yes" size="6" pos="6" show="LiteonTe_4e:2e:21" value="18cf5e4e2e21"/>
      <field name="eth.addr" showname="Address: LiteonTe_4e:2e:21 (18:cf:5e:4e:2e:21)" size="6" pos="6" show="18:cf:5e:4e:2e:21" value="18cf5e4e2e21"/>
      <field name="eth.addr_resolved" showname="Address (resolved): LiteonTe_4e:2e:21" hide="yes" size="6" pos="6" show="LiteonTe_4e:2e:21" value="18cf5e4e2e21"/>
      <field name="eth.lg" showname=".... ..0. .... .... .... .... = LG bit: Globally unique address (factory default)" size="3" pos="6" show="0" value="0" unmaskedvalue="18cf5e"/>
      <field name="eth.ig" showname=".... ...0 .... .... .... .... = IG bit: Individual address (unicast)" size="3" pos="6" show="0" value="0" unmaskedvalue="18cf5e"/>
    </field>
    <field name="eth.type" showname="Type: IPv4 (0x0800)" size="2" pos="12" show="0x00000800" value="0800"/>
  </proto>
  <proto name="ip" showname="Internet Protocol Version 4, Src: 192.168.1.66, Dst: 205.196.6.67" size="20" pos="14">
    <field name="ip.version" showname="0100 .... = Version: 4" size="1" pos="14" show="4" value="4" unmaskedvalue="45"/>
    <field name="ip.hdr_len" showname=".... 0101 = Header Length: 20 bytes (5)" size="1" pos="14" show="20" value="45"/>
    <field name="ip.dsfield" showname="Differentiated Services Field: 0x00 (DSCP: CS0, ECN: Not-ECT)" size="1" pos="15" show="0x00000000" value="00">
      <field name="ip.dsfield.dscp" showname="0000 00.. = Differentiated Services Codepoint: Default (0)" size="1" pos="15" show="0" value="0" unmaskedvalue="00"/>
      <field name="ip.dsfield.ecn" showname=".... ..00 = Explicit Congestion Notification: Not ECN-Capable Transport (0)" size="1" pos="15" show="0" value="0" unmaskedvalue="00"/>
    </field>
    <field name="ip.len" showname="Total Length: 40" size="2" pos="16" show="40" value="0028"/>
    <field name="ip.id" showname="Identification: 0x3ee2 (16098)" size="2" pos="18" show="0x00003ee2" value="3ee2"/>
    <field name="ip.flags" showname="Flags: 0x4000, Don&#x27;t fragment" size="2" pos="20" show="0x00004000" value="4000">
      <field name="ip.flags.rb" showname="0... .... .... .... = Reserved bit: Not set" size="2" pos="20" show="0" value="0" unmaskedvalue="4000"/>
      <field name="ip.flags.df" showname=".1.. .... .... .... = Don&#x27;t fragment: Set" size="2" pos="20" show="1" value="1" unmaskedvalue="4000"/>
      <field name="ip.flags.mf" showname="..0. .... .... .... = More fragments: Not set" size="2" pos="20" show="0" value="0" unmaskedvalue="4000"/>
      <field name="ip.frag_offset" showname="...0 0000 0000 0000 = Fragment offset: 0" size="2" pos="20" show="0" value="0" unmaskedvalue="4000"/>
    </field>
    <field name="ip.ttl" showname="Time to live: 128" size="1" pos="22" show="128" value="80"/>
    <field name="ip.proto" showname="Protocol: TCP (6)" size="1" pos="23" show="6" value="06"/>
    <field name="ip.checksum" showname="Header checksum: 0x25fc [validation disabled]" size="2" pos="24" show="0x000025fc" value="25fc"/>
    <field name="ip.checksum.status" showname="Header checksum status: Unverified" size="0" pos="24" show="2"/>
    <field name="ip.src" showname="Source: 192.168.1.66" size="4" pos="26" show="192.168.1.66" value="c0a80142"/>
    <field name="ip.addr" showname="Source or Destination Address: 192.168.1.66" hide="yes" size="4" pos="26" show="192.168.1.66" value="c0a80142"/>
    <field name="ip.src_host" showname="Source Host: 192.168.1.66" hide="yes" size="4" pos="26" show="192.168.1.66" value="c0a80142"/>
    <field name="ip.host" showname="Source or Destination Host: 192.168.1.66" hide="yes" size="4" pos="26" show="192.168.1.66" value="c0a80142"/>
    <field name="ip.dst" showname="Destination: 205.196.6.67" size="4" pos="30" show="205.196.6.67" value="cdc40643"/>
    <field name="ip.addr" showname="Source or Destination Address: 205.196.6.67" hide="yes" size="4" pos="30" show="205.196.6.67" value="cdc40643"/>
    <field name="ip.dst_host" showname="Destination Host: 205.196.6.67" hide="yes" size="4" pos="30" show="205.196.6.67" value="cdc40643"/>
    <field name="ip.host" showname="Source or Destination Host: 205.196.6.67" hide="yes" size="4" pos="30" show="205.196.6.67" value="cdc40643"/>
  </proto>
  <proto name="tcp" showname="Transmission Control Protocol, Src Port: 50128, Dst Port: 27020, Seq: 1, Ack: 105, Len: 0" size="20" pos="34">
    <field name="tcp.srcport" showname="Source Port: 50128" size="2" pos="34" show="50128" value="c3d0"/>
    <field name="tcp.dstport" showname="Destination Port: 27020" size="2" pos="36" show="27020" value="698c"/>
    <field name="tcp.port" showname="Source or Destination Port: 50128" hide="yes" size="2" pos="34" show="50128" value="c3d0"/>
    <field name="tcp.port" showname="Source or Destination Port: 27020" hide="yes" size="2" pos="36" show="27020" value="698c"/>
    <field name="tcp.stream" showname="Stream index: 2" size="0" pos="34" show="2"/>
    <field name="tcp.len" showname="TCP Segment Len: 0" size="1" pos="46" show="0" value="50"/>
    <field name="tcp.seq" showname="Sequence number: 1    (relative sequence number)" size="4" pos="38" show="1" value="d8f5b4ee"/>
    <field name="tcp.nxtseq" showname="Next sequence number: 1    (relative sequence number)" size="0" pos="34" show="1"/>
    <field name="tcp.ack" showname="Acknowledgment number: 105    (relative ack number)" size="4" pos="42" show="105" value="bcbae860"/>
    <field name="tcp.hdr_len" showname="0101 .... = Header Length: 20 bytes (5)" size="1" pos="46" show="20" value="50"/>
    <field name="tcp.flags" showname="Flags: 0x010 (ACK)" size="2" pos="46" show="0x00000010" value="10" unmaskedvalue="5010">
      <field name="tcp.flags.res" showname="000. .... .... = Reserved: Not set" size="1" pos="46" show="0" value="0" unmaskedvalue="50"/>
      <field name="tcp.flags.ns" showname="...0 .... .... = Nonce: Not set" size="1" pos="46" show="0" value="0" unmaskedvalue="50"/>
      <field name="tcp.flags.cwr" showname=".... 0... .... = Congestion Window Reduced (CWR): Not set" size="1" pos="47" show="0" value="0" unmaskedvalue="10"/>
      <field name="tcp.flags.ecn" showname=".... .0.. .... = ECN-Echo: Not set" size="1" pos="47" show="0" value="0" unmaskedvalue="10"/>
      <field name="tcp.flags.urg" showname=".... ..0. .... = Urgent: Not set" size="1" pos="47" show="0" value="0" unmaskedvalue="10"/>
      <field name="tcp.flags.ack" showname=".... ...1 .... = Acknowledgment: Set" size="1" pos="47" show="1" value="1" unmaskedvalue="10"/>
      <field name="tcp.flags.push" showname=".... .... 0... = Push: Not set" size="1" pos="47" show="0" value="0" unmaskedvalue="10"/>
      <field name="tcp.flags.reset" showname=".... .... .0.. = Reset: Not set" size="1" pos="47" show="0" value="0" unmaskedvalue="10"/>
      <field name="tcp.flags.syn" showname=".... .... ..0. = Syn: Not set" size="1" pos="47" show="0" value="0" unmaskedvalue="10"/>
      <field name="tcp.flags.fin" showname=".... .... ...0 = Fin: Not set" size="1" pos="47" show="0" value="0" unmaskedvalue="10"/>
      <field name="tcp.flags.str" showname="TCP Flags: \xc2\xb7\xc2\xb7\xc2\xb7\xc2\xb7\xc2\xb7\xc2\xb7\xc2\xb7A\xc2\xb7\xc2\xb7\xc2\xb7\xc2\xb7" size="2" pos="46" show="\xc2\xb7\xc2\xb7\xc2\xb7\xc2\xb7\xc2\xb7\xc2\xb7\xc2\xb7A\xc2\xb7\xc2\xb7\xc2\xb7\xc2\xb7" value="5010"/>
    </field>
    <field name="tcp.window_size_value" showname="Window size value: 65325" size="2" pos="48" show="65325" value="ff2d"/>
    <field name="tcp.window_size" showname="Calculated window size: 65325" size="2" pos="48" show="65325" value="ff2d"/>
    <field name="tcp.window_size_scalefactor" showname="Window size scaling factor: -1 (unknown)" size="2" pos="48" show="-1" value="ff2d"/>
    <field name="tcp.checksum" showname="Checksum: 0xba57 [unverified]" size="2" pos="50" show="0x0000ba57" value="ba57"/>
    <field name="tcp.checksum.status" showname="Checksum Status: Unverified" size="0" pos="50" show="2"/>
    <field name="tcp.urgent_pointer" showname="Urgent pointer: 0" size="2" pos="52" show="0" value="0000"/>
    <field name="tcp.analysis" showname="SEQ/ACK analysis" size="0" pos="34" show="" value="">
      <field name="tcp.analysis.acks_frame" showname="This is an ACK to the segment in frame: 9" size="0" pos="34" show="9"/>
      <field name="tcp.analysis.ack_rtt" showname="The RTT to ACK the segment was: 0.040589000 seconds" size="0" pos="34" show="0.040589000"/>
    </field>
    <field name="" show="Timestamps" size="0" pos="34">
      <field name="tcp.time_relative" showname="Time since first frame in this TCP stream: 0.040589000 seconds" size="0" pos="34" show="0.040589000"/>
      <field name="tcp.time_delta" showname="Time since previous frame in this TCP stream: 0.040589000 seconds" size="0" pos="34" show="0.040589000"/>
    </field>
  </proto>
</packet>


<packet>
  <proto name="geninfo" pos="0" showname="General information" size="252">
    <field name="num" pos="0" show="11" showname="Number" value="b" size="252"/>
    <field name="len" pos="0" show="252" showname="Frame Length" value="fc" size="252"/>
    <field name="caplen" pos="0" show="252" showname="Captured Length" value="fc" size="252"/>
    <field name="timestamp" pos="0" show="Dec 11, 2018 21:06:42.977227000 Mountain Standard Time" showname="Captured Time" value="1544587602.977227000" size="252"/>
  </proto>
  <proto name="frame" showname="Frame 11: 252 bytes on wire (2016 bits), 252 bytes captured (2016 bits)" size="252" pos="0">
    <field name="frame.encap_type" showname="Encapsulation type: Ethernet (1)" size="0" pos="0" show="1"/>
    <field name="frame.time" showname="Arrival Time: Dec 11, 2018 21:06:42.977227000 Mountain Standard Time" size="0" pos="0" show="Dec 11, 2018 21:06:42.977227000 Mountain Standard Time"/>
    <field name="frame.offset_shift" showname="Time shift for this packet: 0.000000000 seconds" size="0" pos="0" show="0.000000000"/>
    <field name="frame.time_epoch" showname="Epoch Time: 1544587602.977227000 seconds" size="0" pos="0" show="1544587602.977227000"/>
    <field name="frame.time_delta" showname="Time delta from previous captured frame: 0.660462000 seconds" size="0" pos="0" show="0.660462000"/>
    <field name="frame.time_delta_displayed" showname="Time delta from previous displayed frame: 0.660462000 seconds" size="0" pos="0" show="0.660462000"/>
    <field name="frame.time_relative" showname="Time since reference or first frame: 1.518027000 seconds" size="0" pos="0" show="1.518027000"/>
    <field name="frame.number" showname="Frame Number: 11" size="0" pos="0" show="11"/>
    <field name="frame.len" showname="Frame Length: 252 bytes (2016 bits)" size="0" pos="0" show="252"/>
    <field name="frame.cap_len" showname="Capture Length: 252 bytes (2016 bits)" size="0" pos="0" show="252"/>
    <field name="frame.marked" showname="Frame is marked: False" size="0" pos="0" show="0"/>
    <field name="frame.ignored" showname="Frame is ignored: False" size="0" pos="0" show="0"/>
    <field name="frame.protocols" showname="Protocols in frame: eth:ethertype:ip:tcp:ssl" size="0" pos="0" show="eth:ethertype:ip:tcp:ssl"/>
  </proto>
  <proto name="eth" showname="Ethernet II, Src: HuaweiTe_30:02:68 (7c:b1:5d:30:02:68), Dst: LiteonTe_4e:2e:21 (18:cf:5e:4e:2e:21)" size="14" pos="0">
    <field name="eth.dst" showname="Destination: LiteonTe_4e:2e:21 (18:cf:5e:4e:2e:21)" size="6" pos="0" show="18:cf:5e:4e:2e:21" value="18cf5e4e2e21">
      <field name="eth.dst_resolved" showname="Destination (resolved): LiteonTe_4e:2e:21" hide="yes" size="6" pos="0" show="LiteonTe_4e:2e:21" value="18cf5e4e2e21"/>
      <field name="eth.addr" showname="Address: LiteonTe_4e:2e:21 (18:cf:5e:4e:2e:21)" size="6" pos="0" show="18:cf:5e:4e:2e:21" value="18cf5e4e2e21"/>
      <field name="eth.addr_resolved" showname="Address (resolved): LiteonTe_4e:2e:21" hide="yes" size="6" pos="0" show="LiteonTe_4e:2e:21" value="18cf5e4e2e21"/>
      <field name="eth.lg" showname=".... ..0. .... .... .... .... = LG bit: Globally unique address (factory default)" size="3" pos="0" show="0" value="0" unmaskedvalue="18cf5e"/>
      <field name="eth.ig" showname=".... ...0 .... .... .... .... = IG bit: Individual address (unicast)" size="3" pos="0" show="0" value="0" unmaskedvalue="18cf5e"/>
    </field>
    <field name="eth.src" showname="Source: HuaweiTe_30:02:68 (7c:b1:5d:30:02:68)" size="6" pos="6" show="7c:b1:5d:30:02:68" value="7cb15d300268">
      <field name="eth.src_resolved" showname="Source (resolved): HuaweiTe_30:02:68" hide="yes" size="6" pos="6" show="HuaweiTe_30:02:68" value="7cb15d300268"/>
      <field name="eth.addr" showname="Address: HuaweiTe_30:02:68 (7c:b1:5d:30:02:68)" size="6" pos="6" show="7c:b1:5d:30:02:68" value="7cb15d300268"/>
      <field name="eth.addr_resolved" showname="Address (resolved): HuaweiTe_30:02:68" hide="yes" size="6" pos="6" show="HuaweiTe_30:02:68" value="7cb15d300268"/>
      <field name="eth.lg" showname=".... ..0. .... .... .... .... = LG bit: Globally unique address (factory default)" size="3" pos="6" show="0" value="0" unmaskedvalue="7cb15d"/>
      <field name="eth.ig" showname=".... ...0 .... .... .... .... = IG bit: Individual address (unicast)" size="3" pos="6" show="0" value="0" unmaskedvalue="7cb15d"/>
    </field>
    <field name="eth.type" showname="Type: IPv4 (0x0800)" size="2" pos="12" show="0x00000800" value="0800"/>
  </proto>
  <proto name="ip" showname="Internet Protocol Version 4, Src: 104.16.60.37, Dst: 192.168.1.66" size="20" pos="14">
    <field name="ip.version" showname="0100 .... = Version: 4" size="1" pos="14" show="4" value="4" unmaskedvalue="45"/>
    <field name="ip.hdr_len" showname=".... 0101 = Header Length: 20 bytes (5)" size="1" pos="14" show="20" value="45"/>
    <field name="ip.dsfield" showname="Differentiated Services Field: 0x00 (DSCP: CS0, ECN: Not-ECT)" size="1" pos="15" show="0x00000000" value="00">
      <field name="ip.dsfield.dscp" showname="0000 00.. = Differentiated Services Codepoint: Default (0)" size="1" pos="15" show="0" value="0" unmaskedvalue="00"/>
      <field name="ip.dsfield.ecn" showname=".... ..00 = Explicit Congestion Notification: Not ECN-Capable Transport (0)" size="1" pos="15" show="0" value="0" unmaskedvalue="00"/>
    </field>
    <field name="ip.len" showname="Total Length: 238" size="2" pos="16" show="238" value="00ee"/>
    <field name="ip.id" showname="Identification: 0xf4b4 (62644)" size="2" pos="18" show="0x0000f4b4" value="f4b4"/>
    <field name="ip.flags" showname="Flags: 0x4000, Don&#x27;t fragment" size="2" pos="20" show="0x00004000" value="4000">
      <field name="ip.flags.rb" showname="0... .... .... .... = Reserved bit: Not set" size="2" pos="20" show="0" value="0" unmaskedvalue="4000"/>
      <field name="ip.flags.df" showname=".1.. .... .... .... = Don&#x27;t fragment: Set" size="2" pos="20" show="1" value="1" unmaskedvalue="4000"/>
      <field name="ip.flags.mf" showname="..0. .... .... .... = More fragments: Not set" size="2" pos="20" show="0" value="0" unmaskedvalue="4000"/>
      <field name="ip.frag_offset" showname="...0 0000 0000 0000 = Fragment offset: 0" size="2" pos="20" show="0" value="0" unmaskedvalue="4000"/>
    </field>
    <field name="ip.ttl" showname="Time to live: 56" size="1" pos="22" show="56" value="38"/>
    <field name="ip.proto" showname="Protocol: TCP (6)" size="1" pos="23" show="6" value="06"/>
    <field name="ip.checksum" showname="Header checksum: 0xe735 [validation disabled]" size="2" pos="24" show="0x0000e735" value="e735"/>
    <field name="ip.checksum.status" showname="Header checksum status: Unverified" size="0" pos="24" show="2"/>
    <field name="ip.src" showname="Source: 104.16.60.37" size="4" pos="26" show="104.16.60.37" value="68103c25"/>
    <field name="ip.addr" showname="Source or Destination Address: 104.16.60.37" hide="yes" size="4" pos="26" show="104.16.60.37" value="68103c25"/>
    <field name="ip.src_host" showname="Source Host: 104.16.60.37" hide="yes" size="4" pos="26" show="104.16.60.37" value="68103c25"/>
    <field name="ip.host" showname="Source or Destination Host: 104.16.60.37" hide="yes" size="4" pos="26" show="104.16.60.37" value="68103c25"/>
    <field name="ip.dst" showname="Destination: 192.168.1.66" size="4" pos="30" show="192.168.1.66" value="c0a80142"/>
    <field name="ip.addr" showname="Source or Destination Address: 192.168.1.66" hide="yes" size="4" pos="30" show="192.168.1.66" value="c0a80142"/>
    <field name="ip.dst_host" showname="Destination Host: 192.168.1.66" hide="yes" size="4" pos="30" show="192.168.1.66" value="c0a80142"/>
    <field name="ip.host" showname="Source or Destination Host: 192.168.1.66" hide="yes" size="4" pos="30" show="192.168.1.66" value="c0a80142"/>
  </proto>
  <proto name="tcp" showname="Transmission Control Protocol, Src Port: 443, Dst Port: 51381, Seq: 41, Ack: 62, Len: 198" size="20" pos="34">
    <field name="tcp.srcport" showname="Source Port: 443" size="2" pos="34" show="443" value="01bb"/>
    <field name="tcp.dstport" showname="Destination Port: 51381" size="2" pos="36" show="51381" value="c8b5"/>
    <field name="tcp.port" showname="Source or Destination Port: 443" hide="yes" size="2" pos="34" show="443" value="01bb"/>
    <field name="tcp.port" showname="Source or Destination Port: 51381" hide="yes" size="2" pos="36" show="51381" value="c8b5"/>
    <field name="tcp.stream" showname="Stream index: 0" size="0" pos="34" show="0"/>
    <field name="tcp.len" showname="TCP Segment Len: 198" size="1" pos="46" show="198" value="50"/>
    <field name="tcp.seq" showname="Sequence number: 41    (relative sequence number)" size="4" pos="38" show="41" value="de9126ac"/>
    <field name="tcp.nxtseq" showname="Next sequence number: 239    (relative sequence number)" size="0" pos="34" show="239"/>
    <field name="tcp.ack" showname="Acknowledgment number: 62    (relative ack number)" size="4" pos="42" show="62" value="2a574e00"/>
    <field name="tcp.hdr_len" showname="0101 .... = Header Length: 20 bytes (5)" size="1" pos="46" show="20" value="50"/>
    <field name="tcp.flags" showname="Flags: 0x018 (PSH, ACK)" size="2" pos="46" show="0x00000018" value="18" unmaskedvalue="5018">
      <field name="tcp.flags.res" showname="000. .... .... = Reserved: Not set" size="1" pos="46" show="0" value="0" unmaskedvalue="50"/>
      <field name="tcp.flags.ns" showname="...0 .... .... = Nonce: Not set" size="1" pos="46" show="0" value="0" unmaskedvalue="50"/>
      <field name="tcp.flags.cwr" showname=".... 0... .... = Congestion Window Reduced (CWR): Not set" size="1" pos="47" show="0" value="0" unmaskedvalue="18"/>
      <field name="tcp.flags.ecn" showname=".... .0.. .... = ECN-Echo: Not set" size="1" pos="47" show="0" value="0" unmaskedvalue="18"/>
      <field name="tcp.flags.urg" showname=".... ..0. .... = Urgent: Not set" size="1" pos="47" show="0" value="0" unmaskedvalue="18"/>
      <field name="tcp.flags.ack" showname=".... ...1 .... = Acknowledgment: Set" size="1" pos="47" show="1" value="1" unmaskedvalue="18"/>
      <field name="tcp.flags.push" showname=".... .... 1... = Push: Set" size="1" pos="47" show="1" value="1" unmaskedvalue="18"/>
      <field name="tcp.flags.reset" showname=".... .... .0.. = Reset: Not set" size="1" pos="47" show="0" value="0" unmaskedvalue="18"/>
      <field name="tcp.flags.syn" showname=".... .... ..0. = Syn: Not set" size="1" pos="47" show="0" value="0" unmaskedvalue="18"/>
      <field name="tcp.flags.fin" showname=".... .... ...0 = Fin: Not set" size="1" pos="47" show="0" value="0" unmaskedvalue="18"/>
      <field name="tcp.flags.str" showname="TCP Flags: \xc2\xb7\xc2\xb7\xc2\xb7\xc2\xb7\xc2\xb7\xc2\xb7\xc2\xb7AP\xc2\xb7\xc2\xb7\xc2\xb7" size="2" pos="46" show="\xc2\xb7\xc2\xb7\xc2\xb7\xc2\xb7\xc2\xb7\xc2\xb7\xc2\xb7AP\xc2\xb7\xc2\xb7\xc2\xb7" value="5018"/>
    </field>
    <field name="tcp.window_size_value" showname="Window size value: 35255" size="2" pos="48" show="35255" value="89b7"/>
    <field name="tcp.window_size" showname="Calculated window size: 35255" size="2" pos="48" show="35255" value="89b7"/>
    <field name="tcp.window_size_scalefactor" showname="Window size scaling factor: -1 (unknown)" size="2" pos="48" show="-1" value="89b7"/>
    <field name="tcp.checksum" showname="Checksum: 0x4798 [unverified]" size="2" pos="50" show="0x00004798" value="4798"/>
    <field name="tcp.checksum.status" showname="Checksum Status: Unverified" size="0" pos="50" show="2"/>
    <field name="tcp.urgent_pointer" showname="Urgent pointer: 0" size="2" pos="52" show="0" value="0000"/>
    <field name="tcp.analysis" showname="SEQ/ACK analysis" size="0" pos="34" show="" value="">
      <field name="tcp.analysis.bytes_in_flight" showname="Bytes in flight: 198" size="0" pos="34" show="198"/>
      <field name="tcp.analysis.push_bytes_sent" showname="Bytes sent since last PSH flag: 198" size="0" pos="34" show="198"/>
    </field>
    <field name="" show="Timestamps" size="0" pos="34">
      <field name="tcp.time_relative" showname="Time since first frame in this TCP stream: 1.518027000 seconds" size="0" pos="34" show="1.518027000"/>
      <field name="tcp.time_delta" showname="Time since previous frame in this TCP stream: 1.343827000 seconds" size="0" pos="34" show="1.343827000"/>
    </field>
    <field name="tcp.payload" showname="TCP payload (198 bytes)" size="198" pos="54" show="17:03:03:00:c1:00:00:00:00:00:00:0c:10:fc:42:28:ce:7d:83:a3:ad:96:8d:39:ff:7e:dd:ad:bf:4a:a6:2c:dc:c7:21:73:eb:ba:55:df:5e:9f:1a:06:b1:14:7e:31:a2:87:01:76:48:d2:59:56:5b:b8:ab:78:8f:a8:32:68:9d:b1:cd:46:4d:1f:66:d1:dd:7f:37:2c:74:da:cb:22:ff:e0:29:e9:df:57:78:6a:a9:93:95:f7:7a:e6:34:f7:fa:2d:dc:35:57:1a:4d:8d:cf:d9:09:41:56:fd:8f:da:21:3c:48:8f:e6:94:0f:8d:0f:a7:59:ee:0b:2b:ab:e9:0b:eb:95:47:50:20:d6:00:e4:3b:f0:9d:27:82:43:2b:87:e5:5e:a2:4a:39:dd:4b:88:8d:7e:ce:34:72:9c:ac:e8:f6:a6:77:67:e9:d1:24:e6:79:44:ec:8d:e3:4c:4b:47:67:8f:29:76:5d:bb:9c:04:9d:56:e6:4c:89:75:15:9a:1e:2e:52:f0:ed" value="17030300c10000000000000c10fc4228ce7d83a3ad968d39ff7eddadbf4aa62cdcc72173ebba55df5e9f1a06b1147e31a287017648d259565bb8ab788fa832689db1cd464d1f66d1dd7f372c74dacb22ffe029e9df57786aa99395f77ae634f7fa2ddc35571a4d8dcfd9094156fd8fda213c488fe6940f8d0fa759ee0b2babe90beb95475020d600e43bf09d2782432b87e55ea24a39dd4b888d7ece34729cace8f6a67767e9d124e67944ec8de34c4b47678f29765dbb9c049d56e64c8975159a1e2e52f0ed"/>
  </proto>
  <proto name="ssl" showname="Secure Sockets Layer" size="198" pos="54">
    <field name="ssl.record" showname="TLSv1.2 Record Layer: Application Data Protocol: http-over-tls" size="198" pos="54" show="" value="">
      <field name="ssl.record.content_type" showname="Content Type: Application Data (23)" size="1" pos="54" show="23" value="17"/>
      <field name="ssl.record.version" showname="Version: TLS 1.2 (0x0303)" size="2" pos="55" show="0x00000303" value="0303"/>
      <field name="ssl.record.length" showname="Length: 193" size="2" pos="57" show="193" value="00c1"/>
      <field name="ssl.app_data" showname="Encrypted Application Data: 0000000000000c10fc4228ce7d83a3ad968d39ff7eddadbf..." size="193" pos="59" show="00:00:00:00:00:00:0c:10:fc:42:28:ce:7d:83:a3:ad:96:8d:39:ff:7e:dd:ad:bf:4a:a6:2c:dc:c7:21:73:eb:ba:55:df:5e:9f:1a:06:b1:14:7e:31:a2:87:01:76:48:d2:59:56:5b:b8:ab:78:8f:a8:32:68:9d:b1:cd:46:4d:1f:66:d1:dd:7f:37:2c:74:da:cb:22:ff:e0:29:e9:df:57:78:6a:a9:93:95:f7:7a:e6:34:f7:fa:2d:dc:35:57:1a:4d:8d:cf:d9:09:41:56:fd:8f:da:21:3c:48:8f:e6:94:0f:8d:0f:a7:59:ee:0b:2b:ab:e9:0b:eb:95:47:50:20:d6:00:e4:3b:f0:9d:27:82:43:2b:87:e5:5e:a2:4a:39:dd:4b:88:8d:7e:ce:34:72:9c:ac:e8:f6:a6:77:67:e9:d1:24:e6:79:44:ec:8d:e3:4c:4b:47:67:8f:29:76:5d:bb:9c:04:9d:56:e6:4c:89:75:15:9a:1e:2e:52:f0:ed" value="0000000000000c10fc4228ce7d83a3ad968d39ff7eddadbf4aa62cdcc72173ebba55df5e9f1a06b1147e31a287017648d259565bb8ab788fa832689db1cd464d1f66d1dd7f372c74dacb22ffe029e9df57786aa99395f77ae634f7fa2ddc35571a4d8dcfd9094156fd8fda213c488fe6940f8d0fa759ee0b2babe90beb95475020d600e43bf09d2782432b87e55ea24a39dd4b888d7ece34729cace8f6a67767e9d124e67944ec8de34c4b47678f29765dbb9c049d56e64c8975159a1e2e52f0ed"/>
    </field>
  </proto>
</packet>


</pdml>
